(lp0
(S'cppflags'
p1
ccopy_reg
_reconstructor
p2
(cino.utils
SpaceList
p3
c__builtin__
list
p4
(lp5
S'-mmcu=atmega32u4'
p6
aS'-DF_CPU=8000000L'
p7
aS'-DARDUINO=105'
p8
aS'-I/usr/share/arduino/hardware/arduino/cores/arduino'
p9
aS'-ffunction-sections'
p10
aS'-fdata-sections'
p11
aS'-g'
p12
aS'-Os'
p13
aS'-w'
p14
aS'-DUSB_VID=0x1B4F'
p15
aS'-DUSB_PID=0x9208'
p16
aS'-I/usr/share/arduino/hardware/arduino/variants/leonardo'
p17
aS'-I/usr/share/arduino/hardware/arduino/cores/arduino'
p18
aS'-I/usr/share/arduino/hardware/arduino/cores/arduino/avr-libc'
p19
atp20
Rp21
tp22
a(S'version.txt'
p23
S'/usr/share/arduino/lib/version.txt'
p24
tp25
a(S'used_libs'
p26
(lp27
S'/usr/share/arduino/hardware/arduino/cores/arduino'
p28
atp29
a(S'cc'
p30
S'/usr/share/arduino/hardware/tools/avr/bin/avr-gcc'
p31
tp32
a(S'make'
p33
S'/usr/share/arduino/hardware/tools/avr/bin/make'
p34
tp35
a(S'build_dir'
p36
S'.build/LilyPadUSB'
p37
tp38
a(S'arduino_core_dir'
p39
g28
tp40
a(S'boards.txt'
p41
(lp42
S'/usr/share/arduino/hardware/arduino/boards.txt'
p43
atp44
a(S'cxxflags'
p45
g2
(g3
g4
(lp46
S'-fno-exceptions'
p47
atp48
Rp49
tp50
a(S'arduino_variants_dir'
p51
S'/usr/share/arduino/hardware/arduino/variants'
p52
tp53
a(S'deps'
p54
g2
(g3
g4
(lp55
S'.build/LilyPadUSB/src/dependencies.d'
p56
aS'.build/LilyPadUSB/arduino/dependencies.d'
p57
atp58
Rp59
tp60
a(S'ar'
p61
S'/usr/share/arduino/hardware/tools/avr/bin/avr-ar'
p62
tp63
a(S'names'
p64
(dp65
S'cpp'
p66
S'%s.cpp'
p67
sS'obj'
p68
S'%s.o'
p69
sg54
S'%s.d'
p70
sS'lib'
p71
S'lib%s.a'
p72
stp73
a(S'cflags'
p74
g2
(g3
g4
(lp75
tp76
Rp77
tp78
a(S'ldflags'
p79
g2
(g3
g4
(lp80
g6
aS'-Wl,-Os'
p81
aS'-Wl,--gc-sections'
p82
atp83
Rp84
tp85
a(S'arduino_libraries_dir'
p86
S'/usr/share/arduino/libraries'
p87
tp88
a(S'arduino_lib_version'
p89
g2
(cino.environment
Version
p90
c__builtin__
tuple
p91
(I1
I0
I5
tp92
tp93
Rp94
tp95
a(S'objcopy'
p96
S'/usr/share/arduino/hardware/tools/avr/bin/avr-objcopy'
p97
tp98
a(S'board_models'
p99
cino.environment
BoardModels
p100
((lp101
(lp102
S'uno'
p103
a(dp104
S'build'
p105
(dp106
S'core'
p107
S'arduino'
p108
sS'mcu'
p109
S'atmega328p'
p110
sS'f_cpu'
p111
S'16000000L'
p112
sS'variant'
p113
S'standard'
p114
ssS'bootloader'
p115
(dp116
S'extended_fuses'
p117
S'0x05'
p118
sS'high_fuses'
p119
S'0xde'
p120
sS'low_fuses'
p121
S'0xff'
p122
sS'lock_bits'
p123
S'0x0F'
p124
sS'file'
p125
S'optiboot_atmega328.hex'
p126
sS'path'
p127
S'optiboot'
p128
sS'unlock_bits'
p129
S'0x3F'
p130
ssS'upload'
p131
(dp132
S'speed'
p133
S'115200'
p134
sS'maximum_size'
p135
S'32256'
p136
sS'protocol'
p137
S'arduino'
p138
ssS'name'
p139
S'Arduino Uno'
p140
sS'_coredir'
p141
S'/usr/share/arduino/hardware/arduino'
p142
saa(lp143
S'atmega328'
p144
a(dp145
S'build'
p146
(dp147
S'core'
p148
S'arduino'
p149
sS'mcu'
p150
S'atmega328p'
p151
sS'f_cpu'
p152
S'16000000L'
p153
sS'variant'
p154
S'standard'
p155
ssS'bootloader'
p156
(dp157
S'extended_fuses'
p158
S'0x05'
p159
sS'high_fuses'
p160
S'0xDA'
p161
sS'low_fuses'
p162
S'0xFF'
p163
sS'lock_bits'
p164
S'0x0F'
p165
sS'file'
p166
S'ATmegaBOOT_168_atmega328.hex'
p167
sS'path'
p168
S'atmega'
p169
sS'unlock_bits'
p170
S'0x3F'
p171
ssS'upload'
p172
(dp173
S'speed'
p174
S'57600'
p175
sS'maximum_size'
p176
S'30720'
p177
sS'protocol'
p178
S'arduino'
p179
ssS'name'
p180
S'Arduino Duemilanove w/ ATmega328'
p181
sg141
S'/usr/share/arduino/hardware/arduino'
p182
saa(lp183
S'diecimila'
p184
a(dp185
S'build'
p186
(dp187
S'core'
p188
S'arduino'
p189
sS'mcu'
p190
S'atmega168'
p191
sS'f_cpu'
p192
S'16000000L'
p193
sS'variant'
p194
S'standard'
p195
ssS'bootloader'
p196
(dp197
S'extended_fuses'
p198
S'0x00'
p199
sS'high_fuses'
p200
S'0xdd'
p201
sS'low_fuses'
p202
S'0xff'
p203
sS'lock_bits'
p204
S'0x0F'
p205
sS'file'
p206
S'ATmegaBOOT_168_diecimila.hex'
p207
sS'path'
p208
S'atmega'
p209
sS'unlock_bits'
p210
S'0x3F'
p211
ssS'upload'
p212
(dp213
S'speed'
p214
S'19200'
p215
sS'maximum_size'
p216
S'14336'
p217
sS'protocol'
p218
S'arduino'
p219
ssS'name'
p220
S'Arduino Diecimila or Duemilanove w/ ATmega168'
p221
sg141
S'/usr/share/arduino/hardware/arduino'
p222
saa(lp223
S'nano328'
p224
a(dp225
S'build'
p226
(dp227
S'core'
p228
S'arduino'
p229
sS'mcu'
p230
S'atmega328p'
p231
sS'f_cpu'
p232
S'16000000L'
p233
sS'variant'
p234
S'eightanaloginputs'
p235
ssS'bootloader'
p236
(dp237
S'extended_fuses'
p238
S'0x05'
p239
sS'high_fuses'
p240
S'0xDA'
p241
sS'low_fuses'
p242
S'0xFF'
p243
sS'lock_bits'
p244
S'0x0F'
p245
sS'file'
p246
S'ATmegaBOOT_168_atmega328.hex'
p247
sS'path'
p248
S'atmega'
p249
sS'unlock_bits'
p250
S'0x3F'
p251
ssS'upload'
p252
(dp253
S'speed'
p254
S'57600'
p255
sS'maximum_size'
p256
S'30720'
p257
sS'protocol'
p258
S'arduino'
p259
ssS'name'
p260
S'Arduino Nano w/ ATmega328'
p261
sg141
S'/usr/share/arduino/hardware/arduino'
p262
saa(lp263
S'nano'
p264
a(dp265
S'build'
p266
(dp267
S'core'
p268
S'arduino'
p269
sS'mcu'
p270
S'atmega168'
p271
sS'f_cpu'
p272
S'16000000L'
p273
sS'variant'
p274
S'eightanaloginputs'
p275
ssS'bootloader'
p276
(dp277
S'extended_fuses'
p278
S'0x00'
p279
sS'high_fuses'
p280
S'0xdd'
p281
sS'low_fuses'
p282
S'0xff'
p283
sS'lock_bits'
p284
S'0x0F'
p285
sS'file'
p286
S'ATmegaBOOT_168_diecimila.hex'
p287
sS'path'
p288
S'atmega'
p289
sS'unlock_bits'
p290
S'0x3F'
p291
ssS'upload'
p292
(dp293
S'speed'
p294
S'19200'
p295
sS'maximum_size'
p296
S'14336'
p297
sS'protocol'
p298
S'arduino'
p299
ssS'name'
p300
S'Arduino Nano w/ ATmega168'
p301
sg141
S'/usr/share/arduino/hardware/arduino'
p302
saa(lp303
S'mega2560'
p304
a(dp305
S'build'
p306
(dp307
S'core'
p308
S'arduino'
p309
sS'mcu'
p310
S'atmega2560'
p311
sS'f_cpu'
p312
S'16000000L'
p313
sS'variant'
p314
S'mega'
p315
ssS'bootloader'
p316
(dp317
S'extended_fuses'
p318
S'0xFD'
p319
sS'high_fuses'
p320
S'0xD8'
p321
sS'low_fuses'
p322
S'0xFF'
p323
sS'lock_bits'
p324
S'0x0F'
p325
sS'file'
p326
S'stk500boot_v2_mega2560.hex'
p327
sS'path'
p328
S'stk500v2'
p329
sS'unlock_bits'
p330
S'0x3F'
p331
ssS'upload'
p332
(dp333
S'speed'
p334
S'115200'
p335
sS'maximum_size'
p336
S'258048'
p337
sS'protocol'
p338
S'wiring'
p339
ssS'name'
p340
S'Arduino Mega 2560 or Mega ADK'
p341
sg141
S'/usr/share/arduino/hardware/arduino'
p342
saa(lp343
S'mega'
p344
a(dp345
S'build'
p346
(dp347
S'core'
p348
S'arduino'
p349
sS'mcu'
p350
S'atmega1280'
p351
sS'f_cpu'
p352
S'16000000L'
p353
sS'variant'
p354
S'mega'
p355
ssS'bootloader'
p356
(dp357
S'extended_fuses'
p358
S'0xF5'
p359
sS'high_fuses'
p360
S'0xDA'
p361
sS'low_fuses'
p362
S'0xFF'
p363
sS'lock_bits'
p364
S'0x0F'
p365
sS'file'
p366
S'ATmegaBOOT_168_atmega1280.hex'
p367
sS'path'
p368
S'atmega'
p369
sS'unlock_bits'
p370
S'0x3F'
p371
ssS'upload'
p372
(dp373
S'speed'
p374
S'57600'
p375
sS'maximum_size'
p376
S'126976'
p377
sS'protocol'
p378
S'arduino'
p379
ssS'name'
p380
S'Arduino Mega (ATmega1280)'
p381
sg141
S'/usr/share/arduino/hardware/arduino'
p382
saa(lp383
S'leonardo'
p384
a(dp385
S'build'
p386
(dp387
S'core'
p388
S'arduino'
p389
sS'f_cpu'
p390
S'16000000L'
p391
sS'vid'
p392
S'0x2341'
p393
sS'pid'
p394
S'0x8036'
p395
sS'variant'
p396
S'leonardo'
p397
sS'mcu'
p398
S'atmega32u4'
p399
ssS'bootloader'
p400
(dp401
S'extended_fuses'
p402
S'0xcb'
p403
sS'high_fuses'
p404
S'0xd8'
p405
sS'low_fuses'
p406
S'0xff'
p407
sS'lock_bits'
p408
S'0x2F'
p409
sS'file'
p410
S'Caterina-Leonardo.hex'
p411
sS'path'
p412
S'caterina'
p413
sS'unlock_bits'
p414
S'0x3F'
p415
ssS'upload'
p416
(dp417
S'speed'
p418
S'57600'
p419
sS'maximum_size'
p420
S'28672'
p421
sS'protocol'
p422
S'avr109'
p423
sS'disable_flushing'
p424
S'true'
p425
ssS'name'
p426
S'Arduino Leonardo'
p427
sg141
S'/usr/share/arduino/hardware/arduino'
p428
saa(lp429
S'esplora'
p430
a(dp431
S'build'
p432
(dp433
S'core'
p434
S'arduino'
p435
sS'f_cpu'
p436
S'16000000L'
p437
sS'vid'
p438
S'0x2341'
p439
sS'pid'
p440
S'0x803C'
p441
sS'variant'
p442
S'leonardo'
p443
sS'mcu'
p444
S'atmega32u4'
p445
ssS'bootloader'
p446
(dp447
S'extended_fuses'
p448
S'0xcb'
p449
sS'high_fuses'
p450
S'0xd8'
p451
sS'low_fuses'
p452
S'0xff'
p453
sS'lock_bits'
p454
S'0x2F'
p455
sS'file'
p456
S'Caterina-Esplora.hex'
p457
sS'path'
p458
S'caterina'
p459
sS'unlock_bits'
p460
S'0x3F'
p461
ssS'upload'
p462
(dp463
S'speed'
p464
S'57600'
p465
sS'maximum_size'
p466
S'28672'
p467
sS'protocol'
p468
S'avr109'
p469
sS'disable_flushing'
p470
S'true'
p471
ssS'name'
p472
S'Arduino Esplora'
p473
sg141
S'/usr/share/arduino/hardware/arduino'
p474
saa(lp475
S'micro'
p476
a(dp477
S'build'
p478
(dp479
S'core'
p480
S'arduino'
p481
sS'f_cpu'
p482
S'16000000L'
p483
sS'vid'
p484
S'0x2341'
p485
sS'pid'
p486
S'0x8037'
p487
sS'variant'
p488
S'micro'
p489
sS'mcu'
p490
S'atmega32u4'
p491
ssS'bootloader'
p492
(dp493
S'extended_fuses'
p494
S'0xcb'
p495
sS'high_fuses'
p496
S'0xd8'
p497
sS'low_fuses'
p498
S'0xff'
p499
sS'lock_bits'
p500
S'0x2F'
p501
sS'file'
p502
S'Caterina-Micro.hex'
p503
sS'path'
p504
S'caterina'
p505
sS'unlock_bits'
p506
S'0x3F'
p507
ssS'upload'
p508
(dp509
S'speed'
p510
S'57600'
p511
sS'maximum_size'
p512
S'28672'
p513
sS'protocol'
p514
S'avr109'
p515
sS'disable_flushing'
p516
S'true'
p517
ssS'name'
p518
S'Arduino Micro'
p519
sg141
S'/usr/share/arduino/hardware/arduino'
p520
saa(lp521
S'mini328'
p522
a(dp523
S'build'
p524
(dp525
S'core'
p526
S'arduino'
p527
sS'mcu'
p528
S'atmega328p'
p529
sS'f_cpu'
p530
S'16000000L'
p531
sS'variant'
p532
S'eightanaloginputs'
p533
ssS'bootloader'
p534
(dp535
S'extended_fuses'
p536
S'0x05'
p537
sS'high_fuses'
p538
S'0xd8'
p539
sS'low_fuses'
p540
S'0xff'
p541
sS'lock_bits'
p542
S'0x0F'
p543
sS'file'
p544
S'optiboot_atmega328-Mini.hex'
p545
sS'path'
p546
S'optiboot'
p547
sS'unlock_bits'
p548
S'0x3F'
p549
ssS'upload'
p550
(dp551
S'speed'
p552
S'115200'
p553
sS'maximum_size'
p554
S'28672'
p555
sS'protocol'
p556
S'arduino'
p557
ssS'name'
p558
S'Arduino Mini w/ ATmega328'
p559
sg141
S'/usr/share/arduino/hardware/arduino'
p560
saa(lp561
S'mini'
p562
a(dp563
S'build'
p564
(dp565
S'core'
p566
S'arduino'
p567
sS'mcu'
p568
S'atmega168'
p569
sS'f_cpu'
p570
S'16000000L'
p571
sS'variant'
p572
S'eightanaloginputs'
p573
ssS'bootloader'
p574
(dp575
S'extended_fuses'
p576
S'0x00'
p577
sS'high_fuses'
p578
S'0xdd'
p579
sS'low_fuses'
p580
S'0xff'
p581
sS'lock_bits'
p582
S'0x0F'
p583
sS'file'
p584
S'ATmegaBOOT_168_ng.hex'
p585
sS'path'
p586
S'atmega'
p587
sS'unlock_bits'
p588
S'0x3F'
p589
ssS'upload'
p590
(dp591
S'speed'
p592
S'19200'
p593
sS'maximum_size'
p594
S'14336'
p595
sS'protocol'
p596
S'arduino'
p597
ssS'name'
p598
S'Arduino Mini w/ ATmega168'
p599
sg141
S'/usr/share/arduino/hardware/arduino'
p600
saa(lp601
S'ethernet'
p602
a(dp603
S'build'
p604
(dp605
S'f_cpu'
p606
S'16000000L'
p607
sS'mcu'
p608
S'atmega328p'
p609
sS'variant'
p610
S'standard'
p611
sS'core'
p612
S'arduino'
p613
ssS'bootloader'
p614
(dp615
S'extended_fuses'
p616
S'0x05'
p617
sS'high_fuses'
p618
S'0xde'
p619
sS'low_fuses'
p620
S'0xff'
p621
sS'lock_bits'
p622
S'0x0F'
p623
sS'file'
p624
S'optiboot_atmega328.hex'
p625
sS'path'
p626
S'optiboot'
p627
sS'unlock_bits'
p628
S'0x3F'
p629
ssS'upload'
p630
(dp631
S'speed'
p632
S'115200'
p633
sS'maximum_size'
p634
S'32256'
p635
sS'protocol'
p636
S'arduino'
p637
ssS'name'
p638
S'Arduino Ethernet'
p639
sg141
S'/usr/share/arduino/hardware/arduino'
p640
saa(lp641
S'fio'
p642
a(dp643
S'build'
p644
(dp645
S'core'
p646
S'arduino'
p647
sS'mcu'
p648
S'atmega328p'
p649
sS'f_cpu'
p650
S'8000000L'
p651
sS'variant'
p652
S'eightanaloginputs'
p653
ssS'bootloader'
p654
(dp655
S'extended_fuses'
p656
S'0x05'
p657
sS'high_fuses'
p658
S'0xDA'
p659
sS'low_fuses'
p660
S'0xFF'
p661
sS'lock_bits'
p662
S'0x0F'
p663
sS'file'
p664
S'ATmegaBOOT_168_atmega328_pro_8MHz.hex'
p665
sS'path'
p666
S'arduino:atmega'
p667
sS'unlock_bits'
p668
S'0x3F'
p669
ssS'upload'
p670
(dp671
S'speed'
p672
S'57600'
p673
sS'maximum_size'
p674
S'30720'
p675
sS'protocol'
p676
S'arduino'
p677
ssS'name'
p678
S'Arduino Fio'
p679
sg141
S'/usr/share/arduino/hardware/arduino'
p680
saa(lp681
S'bt328'
p682
a(dp683
S'build'
p684
(dp685
S'core'
p686
S'arduino'
p687
sS'mcu'
p688
S'atmega328p'
p689
sS'f_cpu'
p690
S'16000000L'
p691
sS'variant'
p692
S'eightanaloginputs'
p693
ssS'bootloader'
p694
(dp695
S'extended_fuses'
p696
S'0x05'
p697
sS'high_fuses'
p698
S'0xd8'
p699
sS'low_fuses'
p700
S'0xff'
p701
sS'lock_bits'
p702
S'0x0F'
p703
sS'file'
p704
S'ATmegaBOOT_168_atmega328_bt.hex'
p705
sS'path'
p706
S'bt'
p707
sS'unlock_bits'
p708
S'0x3F'
p709
ssS'upload'
p710
(dp711
S'speed'
p712
S'19200'
p713
sS'maximum_size'
p714
S'28672'
p715
sS'protocol'
p716
S'arduino'
p717
sS'disable_flushing'
p718
S'true'
p719
ssS'name'
p720
S'Arduino BT w/ ATmega328'
p721
sg141
S'/usr/share/arduino/hardware/arduino'
p722
saa(lp723
S'bt'
p724
a(dp725
S'build'
p726
(dp727
S'core'
p728
S'arduino'
p729
sS'mcu'
p730
S'atmega168'
p731
sS'f_cpu'
p732
S'16000000L'
p733
sS'variant'
p734
S'eightanaloginputs'
p735
ssS'bootloader'
p736
(dp737
S'extended_fuses'
p738
S'0x00'
p739
sS'high_fuses'
p740
S'0xdd'
p741
sS'low_fuses'
p742
S'0xff'
p743
sS'lock_bits'
p744
S'0x0F'
p745
sS'file'
p746
S'ATmegaBOOT_168.hex'
p747
sS'path'
p748
S'bt'
p749
sS'unlock_bits'
p750
S'0x3F'
p751
ssS'upload'
p752
(dp753
S'speed'
p754
S'19200'
p755
sS'maximum_size'
p756
S'14336'
p757
sS'protocol'
p758
S'arduino'
p759
sS'disable_flushing'
p760
S'true'
p761
ssS'name'
p762
S'Arduino BT w/ ATmega168'
p763
sg141
S'/usr/share/arduino/hardware/arduino'
p764
saa(lp765
S'LilyPadUSB'
p766
a(dp767
S'build'
p768
(dp769
S'core'
p770
S'arduino'
p771
sS'f_cpu'
p772
S'8000000L'
p773
sS'vid'
p774
S'0x1B4F'
p775
sS'pid'
p776
S'0x9208'
p777
sS'variant'
p778
S'leonardo'
p779
sS'mcu'
p780
S'atmega32u4'
p781
ssS'bootloader'
p782
(dp783
S'extended_fuses'
p784
S'0xce'
p785
sS'high_fuses'
p786
S'0xd8'
p787
sS'low_fuses'
p788
S'0xff'
p789
sS'lock_bits'
p790
S'0x2F'
p791
sS'file'
p792
S'Caterina-LilyPadUSB.hex'
p793
sS'path'
p794
S'caterina-LilyPadUSB'
p795
sS'unlock_bits'
p796
S'0x3F'
p797
ssS'upload'
p798
(dp799
S'speed'
p800
S'57600'
p801
sS'maximum_size'
p802
S'28672'
p803
sS'protocol'
p804
S'avr109'
p805
sS'disable_flushing'
p806
S'true'
p807
ssS'name'
p808
S'LilyPad Arduino USB'
p809
sg141
S'/usr/share/arduino/hardware/arduino'
p810
saa(lp811
S'lilypad328'
p812
a(dp813
S'build'
p814
(dp815
S'core'
p816
S'arduino'
p817
sS'mcu'
p818
S'atmega328p'
p819
sS'f_cpu'
p820
S'8000000L'
p821
sS'variant'
p822
S'standard'
p823
ssS'bootloader'
p824
(dp825
S'extended_fuses'
p826
S'0x05'
p827
sS'high_fuses'
p828
S'0xDA'
p829
sS'low_fuses'
p830
S'0xFF'
p831
sS'lock_bits'
p832
S'0x0F'
p833
sS'file'
p834
S'ATmegaBOOT_168_atmega328_pro_8MHz.hex'
p835
sS'path'
p836
S'atmega'
p837
sS'unlock_bits'
p838
S'0x3F'
p839
ssS'upload'
p840
(dp841
S'speed'
p842
S'57600'
p843
sS'maximum_size'
p844
S'30720'
p845
sS'protocol'
p846
S'arduino'
p847
ssS'name'
p848
S'LilyPad Arduino w/ ATmega328'
p849
sg141
S'/usr/share/arduino/hardware/arduino'
p850
saa(lp851
S'lilypad'
p852
a(dp853
S'build'
p854
(dp855
S'core'
p856
S'arduino'
p857
sS'mcu'
p858
S'atmega168'
p859
sS'f_cpu'
p860
S'8000000L'
p861
sS'variant'
p862
S'standard'
p863
ssS'bootloader'
p864
(dp865
S'extended_fuses'
p866
S'0x00'
p867
sS'high_fuses'
p868
S'0xdd'
p869
sS'low_fuses'
p870
S'0xe2'
p871
sS'lock_bits'
p872
S'0x0F'
p873
sS'file'
p874
S'LilyPadBOOT_168.hex'
p875
sS'path'
p876
S'lilypad'
p877
sS'unlock_bits'
p878
S'0x3F'
p879
ssS'upload'
p880
(dp881
S'speed'
p882
S'19200'
p883
sS'maximum_size'
p884
S'14336'
p885
sS'protocol'
p886
S'arduino'
p887
ssS'name'
p888
S'LilyPad Arduino w/ ATmega168'
p889
sg141
S'/usr/share/arduino/hardware/arduino'
p890
saa(lp891
S'pro5v328'
p892
a(dp893
S'build'
p894
(dp895
S'core'
p896
S'arduino'
p897
sS'mcu'
p898
S'atmega328p'
p899
sS'f_cpu'
p900
S'16000000L'
p901
sS'variant'
p902
S'standard'
p903
ssS'bootloader'
p904
(dp905
S'extended_fuses'
p906
S'0x05'
p907
sS'high_fuses'
p908
S'0xDA'
p909
sS'low_fuses'
p910
S'0xFF'
p911
sS'lock_bits'
p912
S'0x0F'
p913
sS'file'
p914
S'ATmegaBOOT_168_atmega328.hex'
p915
sS'path'
p916
S'atmega'
p917
sS'unlock_bits'
p918
S'0x3F'
p919
ssS'upload'
p920
(dp921
S'speed'
p922
S'57600'
p923
sS'maximum_size'
p924
S'30720'
p925
sS'protocol'
p926
S'arduino'
p927
ssS'name'
p928
S'Arduino Pro or Pro Mini (5V, 16 MHz) w/ ATmega328'
p929
sg141
S'/usr/share/arduino/hardware/arduino'
p930
saa(lp931
S'pro5v'
p932
a(dp933
S'build'
p934
(dp935
S'core'
p936
S'arduino'
p937
sS'mcu'
p938
S'atmega168'
p939
sS'f_cpu'
p940
S'16000000L'
p941
sS'variant'
p942
S'standard'
p943
ssS'bootloader'
p944
(dp945
S'extended_fuses'
p946
S'0x00'
p947
sS'high_fuses'
p948
S'0xdd'
p949
sS'low_fuses'
p950
S'0xff'
p951
sS'lock_bits'
p952
S'0x0F'
p953
sS'file'
p954
S'ATmegaBOOT_168_diecimila.hex'
p955
sS'path'
p956
S'atmega'
p957
sS'unlock_bits'
p958
S'0x3F'
p959
ssS'upload'
p960
(dp961
S'speed'
p962
S'19200'
p963
sS'maximum_size'
p964
S'14336'
p965
sS'protocol'
p966
S'arduino'
p967
ssS'name'
p968
S'Arduino Pro or Pro Mini (5V, 16 MHz) w/ ATmega168'
p969
sg141
S'/usr/share/arduino/hardware/arduino'
p970
saa(lp971
S'pro328'
p972
a(dp973
S'build'
p974
(dp975
S'core'
p976
S'arduino'
p977
sS'mcu'
p978
S'atmega328p'
p979
sS'f_cpu'
p980
S'8000000L'
p981
sS'variant'
p982
S'standard'
p983
ssS'bootloader'
p984
(dp985
S'extended_fuses'
p986
S'0x05'
p987
sS'high_fuses'
p988
S'0xDA'
p989
sS'low_fuses'
p990
S'0xFF'
p991
sS'lock_bits'
p992
S'0x0F'
p993
sS'file'
p994
S'ATmegaBOOT_168_atmega328_pro_8MHz.hex'
p995
sS'path'
p996
S'atmega'
p997
sS'unlock_bits'
p998
S'0x3F'
p999
ssS'upload'
p1000
(dp1001
S'speed'
p1002
S'57600'
p1003
sS'maximum_size'
p1004
S'30720'
p1005
sS'protocol'
p1006
S'arduino'
p1007
ssS'name'
p1008
S'Arduino Pro or Pro Mini (3.3V, 8 MHz) w/ ATmega328'
p1009
sg141
S'/usr/share/arduino/hardware/arduino'
p1010
saa(lp1011
S'pro'
p1012
a(dp1013
S'build'
p1014
(dp1015
S'core'
p1016
S'arduino'
p1017
sS'mcu'
p1018
S'atmega168'
p1019
sS'f_cpu'
p1020
S'8000000L'
p1021
sS'variant'
p1022
S'standard'
p1023
ssS'bootloader'
p1024
(dp1025
S'extended_fuses'
p1026
S'0x00'
p1027
sS'high_fuses'
p1028
S'0xdd'
p1029
sS'low_fuses'
p1030
S'0xc6'
p1031
sS'lock_bits'
p1032
S'0x0F'
p1033
sS'file'
p1034
S'ATmegaBOOT_168_pro_8MHz.hex'
p1035
sS'path'
p1036
S'atmega'
p1037
sS'unlock_bits'
p1038
S'0x3F'
p1039
ssS'upload'
p1040
(dp1041
S'speed'
p1042
S'19200'
p1043
sS'maximum_size'
p1044
S'14336'
p1045
sS'protocol'
p1046
S'arduino'
p1047
ssS'name'
p1048
S'Arduino Pro or Pro Mini (3.3V, 8 MHz) w/ ATmega168'
p1049
sg141
S'/usr/share/arduino/hardware/arduino'
p1050
saa(lp1051
S'atmega168'
p1052
a(dp1053
S'build'
p1054
(dp1055
S'core'
p1056
S'arduino'
p1057
sS'mcu'
p1058
S'atmega168'
p1059
sS'f_cpu'
p1060
S'16000000L'
p1061
sS'variant'
p1062
S'standard'
p1063
ssS'bootloader'
p1064
(dp1065
S'extended_fuses'
p1066
S'0x00'
p1067
sS'high_fuses'
p1068
S'0xdd'
p1069
sS'low_fuses'
p1070
S'0xff'
p1071
sS'lock_bits'
p1072
S'0x0F'
p1073
sS'file'
p1074
S'ATmegaBOOT_168_ng.hex'
p1075
sS'path'
p1076
S'atmega'
p1077
sS'unlock_bits'
p1078
S'0x3F'
p1079
ssS'upload'
p1080
(dp1081
S'speed'
p1082
S'19200'
p1083
sS'maximum_size'
p1084
S'14336'
p1085
sS'protocol'
p1086
S'arduino'
p1087
ssS'name'
p1088
S'Arduino NG or older w/ ATmega168'
p1089
sg141
S'/usr/share/arduino/hardware/arduino'
p1090
saa(lp1091
S'atmega8'
p1092
a(dp1093
S'build'
p1094
(dp1095
S'core'
p1096
S'arduino'
p1097
sS'mcu'
p1098
S'atmega8'
p1099
sS'f_cpu'
p1100
S'16000000L'
p1101
sS'variant'
p1102
S'standard'
p1103
ssS'bootloader'
p1104
(dp1105
S'high_fuses'
p1106
S'0xca'
p1107
sS'low_fuses'
p1108
S'0xdf'
p1109
sS'lock_bits'
p1110
S'0x0F'
p1111
sS'file'
p1112
S'ATmegaBOOT-prod-firmware-2009-11-07.hex'
p1113
sS'path'
p1114
S'atmega8'
p1115
sS'unlock_bits'
p1116
S'0x3F'
p1117
ssS'upload'
p1118
(dp1119
S'speed'
p1120
S'19200'
p1121
sS'maximum_size'
p1122
S'7168'
p1123
sS'protocol'
p1124
S'arduino'
p1125
ssS'name'
p1126
S'Arduino NG or older w/ ATmega8'
p1127
sg141
S'/usr/share/arduino/hardware/arduino'
p1128
saa(lp1129
S'robotControl'
p1130
a(dp1131
S'build'
p1132
(dp1133
S'core'
p1134
S'robot'
p1135
sS'f_cpu'
p1136
S'16000000L'
p1137
sS'vid'
p1138
S'0x2341'
p1139
sS'pid'
p1140
S'0x8038'
p1141
sS'variant'
p1142
S'robot_control'
p1143
sS'mcu'
p1144
S'atmega32u4'
p1145
ssS'bootloader'
p1146
(dp1147
S'extended_fuses'
p1148
S'0xcb'
p1149
sS'high_fuses'
p1150
S'0xd8'
p1151
sS'low_fuses'
p1152
S'0xff'
p1153
sS'lock_bits'
p1154
S'0x2F'
p1155
sS'file'
p1156
S'Caterina-Robot-Control.hex'
p1157
sS'path'
p1158
S'caterina-Arduino_Robot'
p1159
sS'unlock_bits'
p1160
S'0x3F'
p1161
ssS'upload'
p1162
(dp1163
S'speed'
p1164
S'57600'
p1165
sS'maximum_size'
p1166
S'28672'
p1167
sS'protocol'
p1168
S'avr109'
p1169
sS'disable_flushing'
p1170
S'true'
p1171
ssS'name'
p1172
S'Arduino Robot Control'
p1173
sg141
S'/usr/share/arduino/hardware/arduino'
p1174
saa(lp1175
S'robotMotor'
p1176
a(dp1177
S'build'
p1178
(dp1179
S'core'
p1180
S'robot'
p1181
sS'f_cpu'
p1182
S'16000000L'
p1183
sS'vid'
p1184
S'0x2341'
p1185
sS'pid'
p1186
S'0x8039'
p1187
sS'variant'
p1188
S'robot_motor'
p1189
sS'mcu'
p1190
S'atmega32u4'
p1191
ssS'bootloader'
p1192
(dp1193
S'extended_fuses'
p1194
S'0xcb'
p1195
sS'high_fuses'
p1196
S'0xd8'
p1197
sS'low_fuses'
p1198
S'0xff'
p1199
sS'lock_bits'
p1200
S'0x2F'
p1201
sS'file'
p1202
S'Caterina-Robot-Motor.hex'
p1203
sS'path'
p1204
S'caterina-Arduino_Robot'
p1205
sS'unlock_bits'
p1206
S'0x3F'
p1207
ssS'upload'
p1208
(dp1209
S'speed'
p1210
S'57600'
p1211
sS'maximum_size'
p1212
S'28672'
p1213
sS'protocol'
p1214
S'avr109'
p1215
sS'disable_flushing'
p1216
S'true'
p1217
ssS'name'
p1218
S'Arduino Robot Motor'
p1219
sg141
S'/usr/share/arduino/hardware/arduino'
p1220
saatp1221
Rp1222
(dp1223
S'default'
p1224
S'uno'
p1225
sbtp1226
a(S'cxx'
p1227
S'/usr/share/arduino/hardware/tools/avr/bin/avr-g++'
p1228
tp1229
a.