(lp0
(S'cppflags'
p1
ccopy_reg
_reconstructor
p2
(cino.utils
SpaceList
p3
c__builtin__
list
p4
(lp5
S'-mmcu=atmega32u4'
p6
aS'-DF_CPU=8000000L'
p7
aS'-DARDUINO=105'
p8
aS'-I/usr/share/arduino/hardware/arduino/cores/arduino'
p9
aS'-ffunction-sections'
p10
aS'-fdata-sections'
p11
aS'-g'
p12
aS'-Os'
p13
aS'-w'
p14
aS'-DUSB_VID=0x1B4F'
p15
aS'-DUSB_PID=0x9208'
p16
aS'-I/usr/share/arduino/hardware/arduino/variants/leonardo'
p17
aS'-I/usr/share/arduino/libraries/OSSex'
p18
aS'-I/usr/share/arduino/hardware/arduino/cores/arduino'
p19
aS'-I/usr/share/arduino/hardware/arduino/cores/arduino/avr-libc'
p20
atp21
Rp22
tp23
a(S'version.txt'
p24
S'/usr/share/arduino/lib/version.txt'
p25
tp26
a(S'used_libs'
p27
(lp28
S'/usr/share/arduino/libraries/OSSex'
p29
aS'/usr/share/arduino/hardware/arduino/cores/arduino'
p30
atp31
a(S'cc'
p32
S'/usr/share/arduino/hardware/tools/avr/bin/avr-gcc'
p33
tp34
a(S'make'
p35
S'/usr/share/arduino/hardware/tools/avr/bin/make'
p36
tp37
a(S'build_dir'
p38
S'.build/LilyPadUSB'
p39
tp40
a(S'arduino_core_dir'
p41
g30
tp42
a(S'boards.txt'
p43
(lp44
S'/usr/share/arduino/hardware/arduino/boards.txt'
p45
atp46
a(S'cxxflags'
p47
g2
(g3
g4
(lp48
S'-fno-exceptions'
p49
atp50
Rp51
tp52
a(S'arduino_variants_dir'
p53
S'/usr/share/arduino/hardware/arduino/variants'
p54
tp55
a(S'deps'
p56
g2
(g3
g4
(lp57
S'.build/LilyPadUSB/src/dependencies.d'
p58
aS'.build/LilyPadUSB/arduino/dependencies.d'
p59
aS'.build/LilyPadUSB/OSSex/dependencies.d'
p60
atp61
Rp62
tp63
a(S'ar'
p64
S'/usr/share/arduino/hardware/tools/avr/bin/avr-ar'
p65
tp66
a(S'names'
p67
(dp68
S'cpp'
p69
S'%s.cpp'
p70
sS'obj'
p71
S'%s.o'
p72
sg56
S'%s.d'
p73
sS'lib'
p74
S'lib%s.a'
p75
stp76
a(S'cflags'
p77
g2
(g3
g4
(lp78
tp79
Rp80
tp81
a(S'ldflags'
p82
g2
(g3
g4
(lp83
g6
aS'-Wl,-Os'
p84
aS'-Wl,--gc-sections'
p85
atp86
Rp87
tp88
a(S'arduino_libraries_dir'
p89
S'/usr/share/arduino/libraries'
p90
tp91
a(S'arduino_lib_version'
p92
g2
(cino.environment
Version
p93
c__builtin__
tuple
p94
(I1
I0
I5
tp95
tp96
Rp97
tp98
a(S'objcopy'
p99
S'/usr/share/arduino/hardware/tools/avr/bin/avr-objcopy'
p100
tp101
a(S'board_models'
p102
cino.environment
BoardModels
p103
((lp104
(lp105
S'uno'
p106
a(dp107
S'build'
p108
(dp109
S'core'
p110
S'arduino'
p111
sS'mcu'
p112
S'atmega328p'
p113
sS'f_cpu'
p114
S'16000000L'
p115
sS'variant'
p116
S'standard'
p117
ssS'bootloader'
p118
(dp119
S'extended_fuses'
p120
S'0x05'
p121
sS'high_fuses'
p122
S'0xde'
p123
sS'low_fuses'
p124
S'0xff'
p125
sS'lock_bits'
p126
S'0x0F'
p127
sS'file'
p128
S'optiboot_atmega328.hex'
p129
sS'path'
p130
S'optiboot'
p131
sS'unlock_bits'
p132
S'0x3F'
p133
ssS'upload'
p134
(dp135
S'speed'
p136
S'115200'
p137
sS'maximum_size'
p138
S'32256'
p139
sS'protocol'
p140
S'arduino'
p141
ssS'name'
p142
S'Arduino Uno'
p143
sS'_coredir'
p144
S'/usr/share/arduino/hardware/arduino'
p145
saa(lp146
S'atmega328'
p147
a(dp148
S'build'
p149
(dp150
S'core'
p151
S'arduino'
p152
sS'mcu'
p153
S'atmega328p'
p154
sS'f_cpu'
p155
S'16000000L'
p156
sS'variant'
p157
S'standard'
p158
ssS'bootloader'
p159
(dp160
S'extended_fuses'
p161
S'0x05'
p162
sS'high_fuses'
p163
S'0xDA'
p164
sS'low_fuses'
p165
S'0xFF'
p166
sS'lock_bits'
p167
S'0x0F'
p168
sS'file'
p169
S'ATmegaBOOT_168_atmega328.hex'
p170
sS'path'
p171
S'atmega'
p172
sS'unlock_bits'
p173
S'0x3F'
p174
ssS'upload'
p175
(dp176
S'speed'
p177
S'57600'
p178
sS'maximum_size'
p179
S'30720'
p180
sS'protocol'
p181
S'arduino'
p182
ssS'name'
p183
S'Arduino Duemilanove w/ ATmega328'
p184
sg144
S'/usr/share/arduino/hardware/arduino'
p185
saa(lp186
S'diecimila'
p187
a(dp188
S'build'
p189
(dp190
S'core'
p191
S'arduino'
p192
sS'mcu'
p193
S'atmega168'
p194
sS'f_cpu'
p195
S'16000000L'
p196
sS'variant'
p197
S'standard'
p198
ssS'bootloader'
p199
(dp200
S'extended_fuses'
p201
S'0x00'
p202
sS'high_fuses'
p203
S'0xdd'
p204
sS'low_fuses'
p205
S'0xff'
p206
sS'lock_bits'
p207
S'0x0F'
p208
sS'file'
p209
S'ATmegaBOOT_168_diecimila.hex'
p210
sS'path'
p211
S'atmega'
p212
sS'unlock_bits'
p213
S'0x3F'
p214
ssS'upload'
p215
(dp216
S'speed'
p217
S'19200'
p218
sS'maximum_size'
p219
S'14336'
p220
sS'protocol'
p221
S'arduino'
p222
ssS'name'
p223
S'Arduino Diecimila or Duemilanove w/ ATmega168'
p224
sg144
S'/usr/share/arduino/hardware/arduino'
p225
saa(lp226
S'nano328'
p227
a(dp228
S'build'
p229
(dp230
S'core'
p231
S'arduino'
p232
sS'mcu'
p233
S'atmega328p'
p234
sS'f_cpu'
p235
S'16000000L'
p236
sS'variant'
p237
S'eightanaloginputs'
p238
ssS'bootloader'
p239
(dp240
S'extended_fuses'
p241
S'0x05'
p242
sS'high_fuses'
p243
S'0xDA'
p244
sS'low_fuses'
p245
S'0xFF'
p246
sS'lock_bits'
p247
S'0x0F'
p248
sS'file'
p249
S'ATmegaBOOT_168_atmega328.hex'
p250
sS'path'
p251
S'atmega'
p252
sS'unlock_bits'
p253
S'0x3F'
p254
ssS'upload'
p255
(dp256
S'speed'
p257
S'57600'
p258
sS'maximum_size'
p259
S'30720'
p260
sS'protocol'
p261
S'arduino'
p262
ssS'name'
p263
S'Arduino Nano w/ ATmega328'
p264
sg144
S'/usr/share/arduino/hardware/arduino'
p265
saa(lp266
S'nano'
p267
a(dp268
S'build'
p269
(dp270
S'core'
p271
S'arduino'
p272
sS'mcu'
p273
S'atmega168'
p274
sS'f_cpu'
p275
S'16000000L'
p276
sS'variant'
p277
S'eightanaloginputs'
p278
ssS'bootloader'
p279
(dp280
S'extended_fuses'
p281
S'0x00'
p282
sS'high_fuses'
p283
S'0xdd'
p284
sS'low_fuses'
p285
S'0xff'
p286
sS'lock_bits'
p287
S'0x0F'
p288
sS'file'
p289
S'ATmegaBOOT_168_diecimila.hex'
p290
sS'path'
p291
S'atmega'
p292
sS'unlock_bits'
p293
S'0x3F'
p294
ssS'upload'
p295
(dp296
S'speed'
p297
S'19200'
p298
sS'maximum_size'
p299
S'14336'
p300
sS'protocol'
p301
S'arduino'
p302
ssS'name'
p303
S'Arduino Nano w/ ATmega168'
p304
sg144
S'/usr/share/arduino/hardware/arduino'
p305
saa(lp306
S'mega2560'
p307
a(dp308
S'build'
p309
(dp310
S'core'
p311
S'arduino'
p312
sS'mcu'
p313
S'atmega2560'
p314
sS'f_cpu'
p315
S'16000000L'
p316
sS'variant'
p317
S'mega'
p318
ssS'bootloader'
p319
(dp320
S'extended_fuses'
p321
S'0xFD'
p322
sS'high_fuses'
p323
S'0xD8'
p324
sS'low_fuses'
p325
S'0xFF'
p326
sS'lock_bits'
p327
S'0x0F'
p328
sS'file'
p329
S'stk500boot_v2_mega2560.hex'
p330
sS'path'
p331
S'stk500v2'
p332
sS'unlock_bits'
p333
S'0x3F'
p334
ssS'upload'
p335
(dp336
S'speed'
p337
S'115200'
p338
sS'maximum_size'
p339
S'258048'
p340
sS'protocol'
p341
S'wiring'
p342
ssS'name'
p343
S'Arduino Mega 2560 or Mega ADK'
p344
sg144
S'/usr/share/arduino/hardware/arduino'
p345
saa(lp346
S'mega'
p347
a(dp348
S'build'
p349
(dp350
S'core'
p351
S'arduino'
p352
sS'mcu'
p353
S'atmega1280'
p354
sS'f_cpu'
p355
S'16000000L'
p356
sS'variant'
p357
S'mega'
p358
ssS'bootloader'
p359
(dp360
S'extended_fuses'
p361
S'0xF5'
p362
sS'high_fuses'
p363
S'0xDA'
p364
sS'low_fuses'
p365
S'0xFF'
p366
sS'lock_bits'
p367
S'0x0F'
p368
sS'file'
p369
S'ATmegaBOOT_168_atmega1280.hex'
p370
sS'path'
p371
S'atmega'
p372
sS'unlock_bits'
p373
S'0x3F'
p374
ssS'upload'
p375
(dp376
S'speed'
p377
S'57600'
p378
sS'maximum_size'
p379
S'126976'
p380
sS'protocol'
p381
S'arduino'
p382
ssS'name'
p383
S'Arduino Mega (ATmega1280)'
p384
sg144
S'/usr/share/arduino/hardware/arduino'
p385
saa(lp386
S'leonardo'
p387
a(dp388
S'build'
p389
(dp390
S'core'
p391
S'arduino'
p392
sS'f_cpu'
p393
S'16000000L'
p394
sS'vid'
p395
S'0x2341'
p396
sS'pid'
p397
S'0x8036'
p398
sS'variant'
p399
S'leonardo'
p400
sS'mcu'
p401
S'atmega32u4'
p402
ssS'bootloader'
p403
(dp404
S'extended_fuses'
p405
S'0xcb'
p406
sS'high_fuses'
p407
S'0xd8'
p408
sS'low_fuses'
p409
S'0xff'
p410
sS'lock_bits'
p411
S'0x2F'
p412
sS'file'
p413
S'Caterina-Leonardo.hex'
p414
sS'path'
p415
S'caterina'
p416
sS'unlock_bits'
p417
S'0x3F'
p418
ssS'upload'
p419
(dp420
S'speed'
p421
S'57600'
p422
sS'maximum_size'
p423
S'28672'
p424
sS'protocol'
p425
S'avr109'
p426
sS'disable_flushing'
p427
S'true'
p428
ssS'name'
p429
S'Arduino Leonardo'
p430
sg144
S'/usr/share/arduino/hardware/arduino'
p431
saa(lp432
S'esplora'
p433
a(dp434
S'build'
p435
(dp436
S'core'
p437
S'arduino'
p438
sS'f_cpu'
p439
S'16000000L'
p440
sS'vid'
p441
S'0x2341'
p442
sS'pid'
p443
S'0x803C'
p444
sS'variant'
p445
S'leonardo'
p446
sS'mcu'
p447
S'atmega32u4'
p448
ssS'bootloader'
p449
(dp450
S'extended_fuses'
p451
S'0xcb'
p452
sS'high_fuses'
p453
S'0xd8'
p454
sS'low_fuses'
p455
S'0xff'
p456
sS'lock_bits'
p457
S'0x2F'
p458
sS'file'
p459
S'Caterina-Esplora.hex'
p460
sS'path'
p461
S'caterina'
p462
sS'unlock_bits'
p463
S'0x3F'
p464
ssS'upload'
p465
(dp466
S'speed'
p467
S'57600'
p468
sS'maximum_size'
p469
S'28672'
p470
sS'protocol'
p471
S'avr109'
p472
sS'disable_flushing'
p473
S'true'
p474
ssS'name'
p475
S'Arduino Esplora'
p476
sg144
S'/usr/share/arduino/hardware/arduino'
p477
saa(lp478
S'micro'
p479
a(dp480
S'build'
p481
(dp482
S'core'
p483
S'arduino'
p484
sS'f_cpu'
p485
S'16000000L'
p486
sS'vid'
p487
S'0x2341'
p488
sS'pid'
p489
S'0x8037'
p490
sS'variant'
p491
S'micro'
p492
sS'mcu'
p493
S'atmega32u4'
p494
ssS'bootloader'
p495
(dp496
S'extended_fuses'
p497
S'0xcb'
p498
sS'high_fuses'
p499
S'0xd8'
p500
sS'low_fuses'
p501
S'0xff'
p502
sS'lock_bits'
p503
S'0x2F'
p504
sS'file'
p505
S'Caterina-Micro.hex'
p506
sS'path'
p507
S'caterina'
p508
sS'unlock_bits'
p509
S'0x3F'
p510
ssS'upload'
p511
(dp512
S'speed'
p513
S'57600'
p514
sS'maximum_size'
p515
S'28672'
p516
sS'protocol'
p517
S'avr109'
p518
sS'disable_flushing'
p519
S'true'
p520
ssS'name'
p521
S'Arduino Micro'
p522
sg144
S'/usr/share/arduino/hardware/arduino'
p523
saa(lp524
S'mini328'
p525
a(dp526
S'build'
p527
(dp528
S'core'
p529
S'arduino'
p530
sS'mcu'
p531
S'atmega328p'
p532
sS'f_cpu'
p533
S'16000000L'
p534
sS'variant'
p535
S'eightanaloginputs'
p536
ssS'bootloader'
p537
(dp538
S'extended_fuses'
p539
S'0x05'
p540
sS'high_fuses'
p541
S'0xd8'
p542
sS'low_fuses'
p543
S'0xff'
p544
sS'lock_bits'
p545
S'0x0F'
p546
sS'file'
p547
S'optiboot_atmega328-Mini.hex'
p548
sS'path'
p549
S'optiboot'
p550
sS'unlock_bits'
p551
S'0x3F'
p552
ssS'upload'
p553
(dp554
S'speed'
p555
S'115200'
p556
sS'maximum_size'
p557
S'28672'
p558
sS'protocol'
p559
S'arduino'
p560
ssS'name'
p561
S'Arduino Mini w/ ATmega328'
p562
sg144
S'/usr/share/arduino/hardware/arduino'
p563
saa(lp564
S'mini'
p565
a(dp566
S'build'
p567
(dp568
S'core'
p569
S'arduino'
p570
sS'mcu'
p571
S'atmega168'
p572
sS'f_cpu'
p573
S'16000000L'
p574
sS'variant'
p575
S'eightanaloginputs'
p576
ssS'bootloader'
p577
(dp578
S'extended_fuses'
p579
S'0x00'
p580
sS'high_fuses'
p581
S'0xdd'
p582
sS'low_fuses'
p583
S'0xff'
p584
sS'lock_bits'
p585
S'0x0F'
p586
sS'file'
p587
S'ATmegaBOOT_168_ng.hex'
p588
sS'path'
p589
S'atmega'
p590
sS'unlock_bits'
p591
S'0x3F'
p592
ssS'upload'
p593
(dp594
S'speed'
p595
S'19200'
p596
sS'maximum_size'
p597
S'14336'
p598
sS'protocol'
p599
S'arduino'
p600
ssS'name'
p601
S'Arduino Mini w/ ATmega168'
p602
sg144
S'/usr/share/arduino/hardware/arduino'
p603
saa(lp604
S'ethernet'
p605
a(dp606
S'build'
p607
(dp608
S'f_cpu'
p609
S'16000000L'
p610
sS'mcu'
p611
S'atmega328p'
p612
sS'variant'
p613
S'standard'
p614
sS'core'
p615
S'arduino'
p616
ssS'bootloader'
p617
(dp618
S'extended_fuses'
p619
S'0x05'
p620
sS'high_fuses'
p621
S'0xde'
p622
sS'low_fuses'
p623
S'0xff'
p624
sS'lock_bits'
p625
S'0x0F'
p626
sS'file'
p627
S'optiboot_atmega328.hex'
p628
sS'path'
p629
S'optiboot'
p630
sS'unlock_bits'
p631
S'0x3F'
p632
ssS'upload'
p633
(dp634
S'speed'
p635
S'115200'
p636
sS'maximum_size'
p637
S'32256'
p638
sS'protocol'
p639
S'arduino'
p640
ssS'name'
p641
S'Arduino Ethernet'
p642
sg144
S'/usr/share/arduino/hardware/arduino'
p643
saa(lp644
S'fio'
p645
a(dp646
S'build'
p647
(dp648
S'core'
p649
S'arduino'
p650
sS'mcu'
p651
S'atmega328p'
p652
sS'f_cpu'
p653
S'8000000L'
p654
sS'variant'
p655
S'eightanaloginputs'
p656
ssS'bootloader'
p657
(dp658
S'extended_fuses'
p659
S'0x05'
p660
sS'high_fuses'
p661
S'0xDA'
p662
sS'low_fuses'
p663
S'0xFF'
p664
sS'lock_bits'
p665
S'0x0F'
p666
sS'file'
p667
S'ATmegaBOOT_168_atmega328_pro_8MHz.hex'
p668
sS'path'
p669
S'arduino:atmega'
p670
sS'unlock_bits'
p671
S'0x3F'
p672
ssS'upload'
p673
(dp674
S'speed'
p675
S'57600'
p676
sS'maximum_size'
p677
S'30720'
p678
sS'protocol'
p679
S'arduino'
p680
ssS'name'
p681
S'Arduino Fio'
p682
sg144
S'/usr/share/arduino/hardware/arduino'
p683
saa(lp684
S'bt328'
p685
a(dp686
S'build'
p687
(dp688
S'core'
p689
S'arduino'
p690
sS'mcu'
p691
S'atmega328p'
p692
sS'f_cpu'
p693
S'16000000L'
p694
sS'variant'
p695
S'eightanaloginputs'
p696
ssS'bootloader'
p697
(dp698
S'extended_fuses'
p699
S'0x05'
p700
sS'high_fuses'
p701
S'0xd8'
p702
sS'low_fuses'
p703
S'0xff'
p704
sS'lock_bits'
p705
S'0x0F'
p706
sS'file'
p707
S'ATmegaBOOT_168_atmega328_bt.hex'
p708
sS'path'
p709
S'bt'
p710
sS'unlock_bits'
p711
S'0x3F'
p712
ssS'upload'
p713
(dp714
S'speed'
p715
S'19200'
p716
sS'maximum_size'
p717
S'28672'
p718
sS'protocol'
p719
S'arduino'
p720
sS'disable_flushing'
p721
S'true'
p722
ssS'name'
p723
S'Arduino BT w/ ATmega328'
p724
sg144
S'/usr/share/arduino/hardware/arduino'
p725
saa(lp726
S'bt'
p727
a(dp728
S'build'
p729
(dp730
S'core'
p731
S'arduino'
p732
sS'mcu'
p733
S'atmega168'
p734
sS'f_cpu'
p735
S'16000000L'
p736
sS'variant'
p737
S'eightanaloginputs'
p738
ssS'bootloader'
p739
(dp740
S'extended_fuses'
p741
S'0x00'
p742
sS'high_fuses'
p743
S'0xdd'
p744
sS'low_fuses'
p745
S'0xff'
p746
sS'lock_bits'
p747
S'0x0F'
p748
sS'file'
p749
S'ATmegaBOOT_168.hex'
p750
sS'path'
p751
S'bt'
p752
sS'unlock_bits'
p753
S'0x3F'
p754
ssS'upload'
p755
(dp756
S'speed'
p757
S'19200'
p758
sS'maximum_size'
p759
S'14336'
p760
sS'protocol'
p761
S'arduino'
p762
sS'disable_flushing'
p763
S'true'
p764
ssS'name'
p765
S'Arduino BT w/ ATmega168'
p766
sg144
S'/usr/share/arduino/hardware/arduino'
p767
saa(lp768
S'LilyPadUSB'
p769
a(dp770
S'build'
p771
(dp772
S'core'
p773
S'arduino'
p774
sS'f_cpu'
p775
S'8000000L'
p776
sS'vid'
p777
S'0x1B4F'
p778
sS'pid'
p779
S'0x9208'
p780
sS'variant'
p781
S'leonardo'
p782
sS'mcu'
p783
S'atmega32u4'
p784
ssS'bootloader'
p785
(dp786
S'extended_fuses'
p787
S'0xce'
p788
sS'high_fuses'
p789
S'0xd8'
p790
sS'low_fuses'
p791
S'0xff'
p792
sS'lock_bits'
p793
S'0x2F'
p794
sS'file'
p795
S'Caterina-LilyPadUSB.hex'
p796
sS'path'
p797
S'caterina-LilyPadUSB'
p798
sS'unlock_bits'
p799
S'0x3F'
p800
ssS'upload'
p801
(dp802
S'speed'
p803
S'57600'
p804
sS'maximum_size'
p805
S'28672'
p806
sS'protocol'
p807
S'avr109'
p808
sS'disable_flushing'
p809
S'true'
p810
ssS'name'
p811
S'LilyPad Arduino USB'
p812
sg144
S'/usr/share/arduino/hardware/arduino'
p813
saa(lp814
S'lilypad328'
p815
a(dp816
S'build'
p817
(dp818
S'core'
p819
S'arduino'
p820
sS'mcu'
p821
S'atmega328p'
p822
sS'f_cpu'
p823
S'8000000L'
p824
sS'variant'
p825
S'standard'
p826
ssS'bootloader'
p827
(dp828
S'extended_fuses'
p829
S'0x05'
p830
sS'high_fuses'
p831
S'0xDA'
p832
sS'low_fuses'
p833
S'0xFF'
p834
sS'lock_bits'
p835
S'0x0F'
p836
sS'file'
p837
S'ATmegaBOOT_168_atmega328_pro_8MHz.hex'
p838
sS'path'
p839
S'atmega'
p840
sS'unlock_bits'
p841
S'0x3F'
p842
ssS'upload'
p843
(dp844
S'speed'
p845
S'57600'
p846
sS'maximum_size'
p847
S'30720'
p848
sS'protocol'
p849
S'arduino'
p850
ssS'name'
p851
S'LilyPad Arduino w/ ATmega328'
p852
sg144
S'/usr/share/arduino/hardware/arduino'
p853
saa(lp854
S'lilypad'
p855
a(dp856
S'build'
p857
(dp858
S'core'
p859
S'arduino'
p860
sS'mcu'
p861
S'atmega168'
p862
sS'f_cpu'
p863
S'8000000L'
p864
sS'variant'
p865
S'standard'
p866
ssS'bootloader'
p867
(dp868
S'extended_fuses'
p869
S'0x00'
p870
sS'high_fuses'
p871
S'0xdd'
p872
sS'low_fuses'
p873
S'0xe2'
p874
sS'lock_bits'
p875
S'0x0F'
p876
sS'file'
p877
S'LilyPadBOOT_168.hex'
p878
sS'path'
p879
S'lilypad'
p880
sS'unlock_bits'
p881
S'0x3F'
p882
ssS'upload'
p883
(dp884
S'speed'
p885
S'19200'
p886
sS'maximum_size'
p887
S'14336'
p888
sS'protocol'
p889
S'arduino'
p890
ssS'name'
p891
S'LilyPad Arduino w/ ATmega168'
p892
sg144
S'/usr/share/arduino/hardware/arduino'
p893
saa(lp894
S'pro5v328'
p895
a(dp896
S'build'
p897
(dp898
S'core'
p899
S'arduino'
p900
sS'mcu'
p901
S'atmega328p'
p902
sS'f_cpu'
p903
S'16000000L'
p904
sS'variant'
p905
S'standard'
p906
ssS'bootloader'
p907
(dp908
S'extended_fuses'
p909
S'0x05'
p910
sS'high_fuses'
p911
S'0xDA'
p912
sS'low_fuses'
p913
S'0xFF'
p914
sS'lock_bits'
p915
S'0x0F'
p916
sS'file'
p917
S'ATmegaBOOT_168_atmega328.hex'
p918
sS'path'
p919
S'atmega'
p920
sS'unlock_bits'
p921
S'0x3F'
p922
ssS'upload'
p923
(dp924
S'speed'
p925
S'57600'
p926
sS'maximum_size'
p927
S'30720'
p928
sS'protocol'
p929
S'arduino'
p930
ssS'name'
p931
S'Arduino Pro or Pro Mini (5V, 16 MHz) w/ ATmega328'
p932
sg144
S'/usr/share/arduino/hardware/arduino'
p933
saa(lp934
S'pro5v'
p935
a(dp936
S'build'
p937
(dp938
S'core'
p939
S'arduino'
p940
sS'mcu'
p941
S'atmega168'
p942
sS'f_cpu'
p943
S'16000000L'
p944
sS'variant'
p945
S'standard'
p946
ssS'bootloader'
p947
(dp948
S'extended_fuses'
p949
S'0x00'
p950
sS'high_fuses'
p951
S'0xdd'
p952
sS'low_fuses'
p953
S'0xff'
p954
sS'lock_bits'
p955
S'0x0F'
p956
sS'file'
p957
S'ATmegaBOOT_168_diecimila.hex'
p958
sS'path'
p959
S'atmega'
p960
sS'unlock_bits'
p961
S'0x3F'
p962
ssS'upload'
p963
(dp964
S'speed'
p965
S'19200'
p966
sS'maximum_size'
p967
S'14336'
p968
sS'protocol'
p969
S'arduino'
p970
ssS'name'
p971
S'Arduino Pro or Pro Mini (5V, 16 MHz) w/ ATmega168'
p972
sg144
S'/usr/share/arduino/hardware/arduino'
p973
saa(lp974
S'pro328'
p975
a(dp976
S'build'
p977
(dp978
S'core'
p979
S'arduino'
p980
sS'mcu'
p981
S'atmega328p'
p982
sS'f_cpu'
p983
S'8000000L'
p984
sS'variant'
p985
S'standard'
p986
ssS'bootloader'
p987
(dp988
S'extended_fuses'
p989
S'0x05'
p990
sS'high_fuses'
p991
S'0xDA'
p992
sS'low_fuses'
p993
S'0xFF'
p994
sS'lock_bits'
p995
S'0x0F'
p996
sS'file'
p997
S'ATmegaBOOT_168_atmega328_pro_8MHz.hex'
p998
sS'path'
p999
S'atmega'
p1000
sS'unlock_bits'
p1001
S'0x3F'
p1002
ssS'upload'
p1003
(dp1004
S'speed'
p1005
S'57600'
p1006
sS'maximum_size'
p1007
S'30720'
p1008
sS'protocol'
p1009
S'arduino'
p1010
ssS'name'
p1011
S'Arduino Pro or Pro Mini (3.3V, 8 MHz) w/ ATmega328'
p1012
sg144
S'/usr/share/arduino/hardware/arduino'
p1013
saa(lp1014
S'pro'
p1015
a(dp1016
S'build'
p1017
(dp1018
S'core'
p1019
S'arduino'
p1020
sS'mcu'
p1021
S'atmega168'
p1022
sS'f_cpu'
p1023
S'8000000L'
p1024
sS'variant'
p1025
S'standard'
p1026
ssS'bootloader'
p1027
(dp1028
S'extended_fuses'
p1029
S'0x00'
p1030
sS'high_fuses'
p1031
S'0xdd'
p1032
sS'low_fuses'
p1033
S'0xc6'
p1034
sS'lock_bits'
p1035
S'0x0F'
p1036
sS'file'
p1037
S'ATmegaBOOT_168_pro_8MHz.hex'
p1038
sS'path'
p1039
S'atmega'
p1040
sS'unlock_bits'
p1041
S'0x3F'
p1042
ssS'upload'
p1043
(dp1044
S'speed'
p1045
S'19200'
p1046
sS'maximum_size'
p1047
S'14336'
p1048
sS'protocol'
p1049
S'arduino'
p1050
ssS'name'
p1051
S'Arduino Pro or Pro Mini (3.3V, 8 MHz) w/ ATmega168'
p1052
sg144
S'/usr/share/arduino/hardware/arduino'
p1053
saa(lp1054
S'atmega168'
p1055
a(dp1056
S'build'
p1057
(dp1058
S'core'
p1059
S'arduino'
p1060
sS'mcu'
p1061
S'atmega168'
p1062
sS'f_cpu'
p1063
S'16000000L'
p1064
sS'variant'
p1065
S'standard'
p1066
ssS'bootloader'
p1067
(dp1068
S'extended_fuses'
p1069
S'0x00'
p1070
sS'high_fuses'
p1071
S'0xdd'
p1072
sS'low_fuses'
p1073
S'0xff'
p1074
sS'lock_bits'
p1075
S'0x0F'
p1076
sS'file'
p1077
S'ATmegaBOOT_168_ng.hex'
p1078
sS'path'
p1079
S'atmega'
p1080
sS'unlock_bits'
p1081
S'0x3F'
p1082
ssS'upload'
p1083
(dp1084
S'speed'
p1085
S'19200'
p1086
sS'maximum_size'
p1087
S'14336'
p1088
sS'protocol'
p1089
S'arduino'
p1090
ssS'name'
p1091
S'Arduino NG or older w/ ATmega168'
p1092
sg144
S'/usr/share/arduino/hardware/arduino'
p1093
saa(lp1094
S'atmega8'
p1095
a(dp1096
S'build'
p1097
(dp1098
S'core'
p1099
S'arduino'
p1100
sS'mcu'
p1101
S'atmega8'
p1102
sS'f_cpu'
p1103
S'16000000L'
p1104
sS'variant'
p1105
S'standard'
p1106
ssS'bootloader'
p1107
(dp1108
S'high_fuses'
p1109
S'0xca'
p1110
sS'low_fuses'
p1111
S'0xdf'
p1112
sS'lock_bits'
p1113
S'0x0F'
p1114
sS'file'
p1115
S'ATmegaBOOT-prod-firmware-2009-11-07.hex'
p1116
sS'path'
p1117
S'atmega8'
p1118
sS'unlock_bits'
p1119
S'0x3F'
p1120
ssS'upload'
p1121
(dp1122
S'speed'
p1123
S'19200'
p1124
sS'maximum_size'
p1125
S'7168'
p1126
sS'protocol'
p1127
S'arduino'
p1128
ssS'name'
p1129
S'Arduino NG or older w/ ATmega8'
p1130
sg144
S'/usr/share/arduino/hardware/arduino'
p1131
saa(lp1132
S'robotControl'
p1133
a(dp1134
S'build'
p1135
(dp1136
S'core'
p1137
S'robot'
p1138
sS'f_cpu'
p1139
S'16000000L'
p1140
sS'vid'
p1141
S'0x2341'
p1142
sS'pid'
p1143
S'0x8038'
p1144
sS'variant'
p1145
S'robot_control'
p1146
sS'mcu'
p1147
S'atmega32u4'
p1148
ssS'bootloader'
p1149
(dp1150
S'extended_fuses'
p1151
S'0xcb'
p1152
sS'high_fuses'
p1153
S'0xd8'
p1154
sS'low_fuses'
p1155
S'0xff'
p1156
sS'lock_bits'
p1157
S'0x2F'
p1158
sS'file'
p1159
S'Caterina-Robot-Control.hex'
p1160
sS'path'
p1161
S'caterina-Arduino_Robot'
p1162
sS'unlock_bits'
p1163
S'0x3F'
p1164
ssS'upload'
p1165
(dp1166
S'speed'
p1167
S'57600'
p1168
sS'maximum_size'
p1169
S'28672'
p1170
sS'protocol'
p1171
S'avr109'
p1172
sS'disable_flushing'
p1173
S'true'
p1174
ssS'name'
p1175
S'Arduino Robot Control'
p1176
sg144
S'/usr/share/arduino/hardware/arduino'
p1177
saa(lp1178
S'robotMotor'
p1179
a(dp1180
S'build'
p1181
(dp1182
S'core'
p1183
S'robot'
p1184
sS'f_cpu'
p1185
S'16000000L'
p1186
sS'vid'
p1187
S'0x2341'
p1188
sS'pid'
p1189
S'0x8039'
p1190
sS'variant'
p1191
S'robot_motor'
p1192
sS'mcu'
p1193
S'atmega32u4'
p1194
ssS'bootloader'
p1195
(dp1196
S'extended_fuses'
p1197
S'0xcb'
p1198
sS'high_fuses'
p1199
S'0xd8'
p1200
sS'low_fuses'
p1201
S'0xff'
p1202
sS'lock_bits'
p1203
S'0x2F'
p1204
sS'file'
p1205
S'Caterina-Robot-Motor.hex'
p1206
sS'path'
p1207
S'caterina-Arduino_Robot'
p1208
sS'unlock_bits'
p1209
S'0x3F'
p1210
ssS'upload'
p1211
(dp1212
S'speed'
p1213
S'57600'
p1214
sS'maximum_size'
p1215
S'28672'
p1216
sS'protocol'
p1217
S'avr109'
p1218
sS'disable_flushing'
p1219
S'true'
p1220
ssS'name'
p1221
S'Arduino Robot Motor'
p1222
sg144
S'/usr/share/arduino/hardware/arduino'
p1223
saatp1224
Rp1225
(dp1226
S'default'
p1227
S'uno'
p1228
sbtp1229
a(S'cxx'
p1230
S'/usr/share/arduino/hardware/tools/avr/bin/avr-g++'
p1231
tp1232
a.