(lp0
(S'cppflags'
p1
ccopy_reg
_reconstructor
p2
(cino.utils
SpaceList
p3
c__builtin__
list
p4
(lp5
S'-mmcu=atmega32u4'
p6
aS'-DF_CPU=8000000L'
p7
aS'-DARDUINO=105'
p8
aS'-I/usr/share/arduino/hardware/arduino/cores/arduino'
p9
aS'-ffunction-sections'
p10
aS'-fdata-sections'
p11
aS'-g'
p12
aS'-Os'
p13
aS'-w'
p14
aS'-DUSB_VID=0x1B4F'
p15
aS'-DUSB_PID=0x9208'
p16
aS'-I/usr/share/arduino/hardware/arduino/variants/leonardo'
p17
aS'-I/usr/share/arduino/libraries/OSSex'
p18
aS'-I/usr/share/arduino/hardware/arduino/cores/arduino'
p19
aS'-I/usr/share/arduino/hardware/arduino/cores/arduino/avr-libc'
p20
atp21
Rp22
tp23
a(S'cxx'
p24
S'/usr/share/arduino/hardware/tools/avr/bin/avr-g++'
p25
tp26
a(S'version.txt'
p27
S'/usr/share/arduino/lib/version.txt'
p28
tp29
a(S'used_libs'
p30
(lp31
S'/usr/share/arduino/libraries/OSSex'
p32
aS'/usr/share/arduino/hardware/arduino/cores/arduino'
p33
atp34
a(S'cc'
p35
S'/usr/share/arduino/hardware/tools/avr/bin/avr-gcc'
p36
tp37
a(S'make'
p38
S'/usr/share/arduino/hardware/tools/avr/bin/make'
p39
tp40
a(S'cflags'
p41
g2
(g3
g4
(lp42
tp43
Rp44
tp45
a(S'build_dir'
p46
S'.build/LilyPadUSB'
p47
tp48
a(S'arduino_core_dir'
p49
g33
tp50
a(S'boards.txt'
p51
(lp52
S'/usr/share/arduino/hardware/arduino/boards.txt'
p53
atp54
a(S'cxxflags'
p55
g2
(g3
g4
(lp56
S'-fno-exceptions'
p57
atp58
Rp59
tp60
a(S'arduino_variants_dir'
p61
S'/usr/share/arduino/hardware/arduino/variants'
p62
tp63
a(S'ar'
p64
S'/usr/share/arduino/hardware/tools/avr/bin/avr-ar'
p65
tp66
a(S'names'
p67
(dp68
S'cpp'
p69
S'%s.cpp'
p70
sS'obj'
p71
S'%s.o'
p72
sS'deps'
p73
S'%s.d'
p74
sS'lib'
p75
S'lib%s.a'
p76
stp77
a(S'deps'
p78
g2
(g3
g4
(lp79
S'.build/LilyPadUSB/src/dependencies.d'
p80
aS'.build/LilyPadUSB/arduino/dependencies.d'
p81
aS'.build/LilyPadUSB/OSSex/dependencies.d'
p82
atp83
Rp84
tp85
a(S'arduino_libraries_dir'
p86
S'/usr/share/arduino/libraries'
p87
tp88
a(S'arduino_lib_version'
p89
g2
(cino.environment
Version
p90
c__builtin__
tuple
p91
(I1
I0
I5
tp92
tp93
Rp94
tp95
a(S'objcopy'
p96
S'/usr/share/arduino/hardware/tools/avr/bin/avr-objcopy'
p97
tp98
a(S'board_models'
p99
cino.environment
BoardModels
p100
((lp101
(lp102
S'uno'
p103
a(dp104
S'_coredir'
p105
S'/usr/share/arduino/hardware/arduino'
p106
sS'bootloader'
p107
(dp108
S'extended_fuses'
p109
S'0x05'
p110
sS'high_fuses'
p111
S'0xde'
p112
sS'low_fuses'
p113
S'0xff'
p114
sS'lock_bits'
p115
S'0x0F'
p116
sS'file'
p117
S'optiboot_atmega328.hex'
p118
sS'path'
p119
S'optiboot'
p120
sS'unlock_bits'
p121
S'0x3F'
p122
ssS'build'
p123
(dp124
S'core'
p125
S'arduino'
p126
sS'mcu'
p127
S'atmega328p'
p128
sS'f_cpu'
p129
S'16000000L'
p130
sS'variant'
p131
S'standard'
p132
ssS'name'
p133
S'Arduino Uno'
p134
sS'upload'
p135
(dp136
S'protocol'
p137
S'arduino'
p138
sS'maximum_size'
p139
S'32256'
p140
sS'speed'
p141
S'115200'
p142
ssaa(lp143
S'atmega328'
p144
a(dp145
g105
S'/usr/share/arduino/hardware/arduino'
p146
sS'bootloader'
p147
(dp148
S'extended_fuses'
p149
S'0x05'
p150
sS'high_fuses'
p151
S'0xDA'
p152
sS'low_fuses'
p153
S'0xFF'
p154
sS'lock_bits'
p155
S'0x0F'
p156
sS'file'
p157
S'ATmegaBOOT_168_atmega328.hex'
p158
sS'path'
p159
S'atmega'
p160
sS'unlock_bits'
p161
S'0x3F'
p162
ssS'build'
p163
(dp164
S'core'
p165
S'arduino'
p166
sS'mcu'
p167
S'atmega328p'
p168
sS'f_cpu'
p169
S'16000000L'
p170
sS'variant'
p171
S'standard'
p172
ssS'name'
p173
S'Arduino Duemilanove w/ ATmega328'
p174
sS'upload'
p175
(dp176
S'protocol'
p177
S'arduino'
p178
sS'maximum_size'
p179
S'30720'
p180
sS'speed'
p181
S'57600'
p182
ssaa(lp183
S'diecimila'
p184
a(dp185
g105
S'/usr/share/arduino/hardware/arduino'
p186
sS'bootloader'
p187
(dp188
S'extended_fuses'
p189
S'0x00'
p190
sS'high_fuses'
p191
S'0xdd'
p192
sS'low_fuses'
p193
S'0xff'
p194
sS'lock_bits'
p195
S'0x0F'
p196
sS'file'
p197
S'ATmegaBOOT_168_diecimila.hex'
p198
sS'path'
p199
S'atmega'
p200
sS'unlock_bits'
p201
S'0x3F'
p202
ssS'build'
p203
(dp204
S'core'
p205
S'arduino'
p206
sS'mcu'
p207
S'atmega168'
p208
sS'f_cpu'
p209
S'16000000L'
p210
sS'variant'
p211
S'standard'
p212
ssS'name'
p213
S'Arduino Diecimila or Duemilanove w/ ATmega168'
p214
sS'upload'
p215
(dp216
S'protocol'
p217
S'arduino'
p218
sS'maximum_size'
p219
S'14336'
p220
sS'speed'
p221
S'19200'
p222
ssaa(lp223
S'nano328'
p224
a(dp225
g105
S'/usr/share/arduino/hardware/arduino'
p226
sS'bootloader'
p227
(dp228
S'extended_fuses'
p229
S'0x05'
p230
sS'high_fuses'
p231
S'0xDA'
p232
sS'low_fuses'
p233
S'0xFF'
p234
sS'lock_bits'
p235
S'0x0F'
p236
sS'file'
p237
S'ATmegaBOOT_168_atmega328.hex'
p238
sS'path'
p239
S'atmega'
p240
sS'unlock_bits'
p241
S'0x3F'
p242
ssS'build'
p243
(dp244
S'core'
p245
S'arduino'
p246
sS'mcu'
p247
S'atmega328p'
p248
sS'f_cpu'
p249
S'16000000L'
p250
sS'variant'
p251
S'eightanaloginputs'
p252
ssS'name'
p253
S'Arduino Nano w/ ATmega328'
p254
sS'upload'
p255
(dp256
S'protocol'
p257
S'arduino'
p258
sS'maximum_size'
p259
S'30720'
p260
sS'speed'
p261
S'57600'
p262
ssaa(lp263
S'nano'
p264
a(dp265
g105
S'/usr/share/arduino/hardware/arduino'
p266
sS'bootloader'
p267
(dp268
S'extended_fuses'
p269
S'0x00'
p270
sS'high_fuses'
p271
S'0xdd'
p272
sS'low_fuses'
p273
S'0xff'
p274
sS'lock_bits'
p275
S'0x0F'
p276
sS'file'
p277
S'ATmegaBOOT_168_diecimila.hex'
p278
sS'path'
p279
S'atmega'
p280
sS'unlock_bits'
p281
S'0x3F'
p282
ssS'build'
p283
(dp284
S'core'
p285
S'arduino'
p286
sS'mcu'
p287
S'atmega168'
p288
sS'f_cpu'
p289
S'16000000L'
p290
sS'variant'
p291
S'eightanaloginputs'
p292
ssS'name'
p293
S'Arduino Nano w/ ATmega168'
p294
sS'upload'
p295
(dp296
S'protocol'
p297
S'arduino'
p298
sS'maximum_size'
p299
S'14336'
p300
sS'speed'
p301
S'19200'
p302
ssaa(lp303
S'mega2560'
p304
a(dp305
g105
S'/usr/share/arduino/hardware/arduino'
p306
sS'bootloader'
p307
(dp308
S'extended_fuses'
p309
S'0xFD'
p310
sS'high_fuses'
p311
S'0xD8'
p312
sS'low_fuses'
p313
S'0xFF'
p314
sS'lock_bits'
p315
S'0x0F'
p316
sS'file'
p317
S'stk500boot_v2_mega2560.hex'
p318
sS'path'
p319
S'stk500v2'
p320
sS'unlock_bits'
p321
S'0x3F'
p322
ssS'build'
p323
(dp324
S'core'
p325
S'arduino'
p326
sS'mcu'
p327
S'atmega2560'
p328
sS'f_cpu'
p329
S'16000000L'
p330
sS'variant'
p331
S'mega'
p332
ssS'name'
p333
S'Arduino Mega 2560 or Mega ADK'
p334
sS'upload'
p335
(dp336
S'protocol'
p337
S'wiring'
p338
sS'maximum_size'
p339
S'258048'
p340
sS'speed'
p341
S'115200'
p342
ssaa(lp343
S'mega'
p344
a(dp345
g105
S'/usr/share/arduino/hardware/arduino'
p346
sS'bootloader'
p347
(dp348
S'extended_fuses'
p349
S'0xF5'
p350
sS'high_fuses'
p351
S'0xDA'
p352
sS'low_fuses'
p353
S'0xFF'
p354
sS'lock_bits'
p355
S'0x0F'
p356
sS'file'
p357
S'ATmegaBOOT_168_atmega1280.hex'
p358
sS'path'
p359
S'atmega'
p360
sS'unlock_bits'
p361
S'0x3F'
p362
ssS'build'
p363
(dp364
S'core'
p365
S'arduino'
p366
sS'mcu'
p367
S'atmega1280'
p368
sS'f_cpu'
p369
S'16000000L'
p370
sS'variant'
p371
S'mega'
p372
ssS'name'
p373
S'Arduino Mega (ATmega1280)'
p374
sS'upload'
p375
(dp376
S'protocol'
p377
S'arduino'
p378
sS'maximum_size'
p379
S'126976'
p380
sS'speed'
p381
S'57600'
p382
ssaa(lp383
S'leonardo'
p384
a(dp385
g105
S'/usr/share/arduino/hardware/arduino'
p386
sS'bootloader'
p387
(dp388
S'extended_fuses'
p389
S'0xcb'
p390
sS'high_fuses'
p391
S'0xd8'
p392
sS'low_fuses'
p393
S'0xff'
p394
sS'lock_bits'
p395
S'0x2F'
p396
sS'file'
p397
S'Caterina-Leonardo.hex'
p398
sS'path'
p399
S'caterina'
p400
sS'unlock_bits'
p401
S'0x3F'
p402
ssS'build'
p403
(dp404
S'core'
p405
S'arduino'
p406
sS'f_cpu'
p407
S'16000000L'
p408
sS'vid'
p409
S'0x2341'
p410
sS'pid'
p411
S'0x8036'
p412
sS'variant'
p413
S'leonardo'
p414
sS'mcu'
p415
S'atmega32u4'
p416
ssS'name'
p417
S'Arduino Leonardo'
p418
sS'upload'
p419
(dp420
S'protocol'
p421
S'avr109'
p422
sS'maximum_size'
p423
S'28672'
p424
sS'speed'
p425
S'57600'
p426
sS'disable_flushing'
p427
S'true'
p428
ssaa(lp429
S'esplora'
p430
a(dp431
g105
S'/usr/share/arduino/hardware/arduino'
p432
sS'bootloader'
p433
(dp434
S'extended_fuses'
p435
S'0xcb'
p436
sS'high_fuses'
p437
S'0xd8'
p438
sS'low_fuses'
p439
S'0xff'
p440
sS'lock_bits'
p441
S'0x2F'
p442
sS'file'
p443
S'Caterina-Esplora.hex'
p444
sS'path'
p445
S'caterina'
p446
sS'unlock_bits'
p447
S'0x3F'
p448
ssS'build'
p449
(dp450
S'core'
p451
S'arduino'
p452
sS'f_cpu'
p453
S'16000000L'
p454
sS'vid'
p455
S'0x2341'
p456
sS'pid'
p457
S'0x803C'
p458
sS'variant'
p459
S'leonardo'
p460
sS'mcu'
p461
S'atmega32u4'
p462
ssS'name'
p463
S'Arduino Esplora'
p464
sS'upload'
p465
(dp466
S'protocol'
p467
S'avr109'
p468
sS'maximum_size'
p469
S'28672'
p470
sS'speed'
p471
S'57600'
p472
sS'disable_flushing'
p473
S'true'
p474
ssaa(lp475
S'micro'
p476
a(dp477
g105
S'/usr/share/arduino/hardware/arduino'
p478
sS'bootloader'
p479
(dp480
S'extended_fuses'
p481
S'0xcb'
p482
sS'high_fuses'
p483
S'0xd8'
p484
sS'low_fuses'
p485
S'0xff'
p486
sS'lock_bits'
p487
S'0x2F'
p488
sS'file'
p489
S'Caterina-Micro.hex'
p490
sS'path'
p491
S'caterina'
p492
sS'unlock_bits'
p493
S'0x3F'
p494
ssS'build'
p495
(dp496
S'core'
p497
S'arduino'
p498
sS'f_cpu'
p499
S'16000000L'
p500
sS'vid'
p501
S'0x2341'
p502
sS'pid'
p503
S'0x8037'
p504
sS'variant'
p505
S'micro'
p506
sS'mcu'
p507
S'atmega32u4'
p508
ssS'name'
p509
S'Arduino Micro'
p510
sS'upload'
p511
(dp512
S'protocol'
p513
S'avr109'
p514
sS'maximum_size'
p515
S'28672'
p516
sS'speed'
p517
S'57600'
p518
sS'disable_flushing'
p519
S'true'
p520
ssaa(lp521
S'mini328'
p522
a(dp523
g105
S'/usr/share/arduino/hardware/arduino'
p524
sS'bootloader'
p525
(dp526
S'extended_fuses'
p527
S'0x05'
p528
sS'high_fuses'
p529
S'0xd8'
p530
sS'low_fuses'
p531
S'0xff'
p532
sS'lock_bits'
p533
S'0x0F'
p534
sS'file'
p535
S'optiboot_atmega328-Mini.hex'
p536
sS'path'
p537
S'optiboot'
p538
sS'unlock_bits'
p539
S'0x3F'
p540
ssS'build'
p541
(dp542
S'core'
p543
S'arduino'
p544
sS'mcu'
p545
S'atmega328p'
p546
sS'f_cpu'
p547
S'16000000L'
p548
sS'variant'
p549
S'eightanaloginputs'
p550
ssS'name'
p551
S'Arduino Mini w/ ATmega328'
p552
sS'upload'
p553
(dp554
S'protocol'
p555
S'arduino'
p556
sS'maximum_size'
p557
S'28672'
p558
sS'speed'
p559
S'115200'
p560
ssaa(lp561
S'mini'
p562
a(dp563
g105
S'/usr/share/arduino/hardware/arduino'
p564
sS'bootloader'
p565
(dp566
S'extended_fuses'
p567
S'0x00'
p568
sS'high_fuses'
p569
S'0xdd'
p570
sS'low_fuses'
p571
S'0xff'
p572
sS'lock_bits'
p573
S'0x0F'
p574
sS'file'
p575
S'ATmegaBOOT_168_ng.hex'
p576
sS'path'
p577
S'atmega'
p578
sS'unlock_bits'
p579
S'0x3F'
p580
ssS'build'
p581
(dp582
S'core'
p583
S'arduino'
p584
sS'mcu'
p585
S'atmega168'
p586
sS'f_cpu'
p587
S'16000000L'
p588
sS'variant'
p589
S'eightanaloginputs'
p590
ssS'name'
p591
S'Arduino Mini w/ ATmega168'
p592
sS'upload'
p593
(dp594
S'protocol'
p595
S'arduino'
p596
sS'maximum_size'
p597
S'14336'
p598
sS'speed'
p599
S'19200'
p600
ssaa(lp601
S'ethernet'
p602
a(dp603
g105
S'/usr/share/arduino/hardware/arduino'
p604
sS'bootloader'
p605
(dp606
S'extended_fuses'
p607
S'0x05'
p608
sS'high_fuses'
p609
S'0xde'
p610
sS'low_fuses'
p611
S'0xff'
p612
sS'lock_bits'
p613
S'0x0F'
p614
sS'file'
p615
S'optiboot_atmega328.hex'
p616
sS'path'
p617
S'optiboot'
p618
sS'unlock_bits'
p619
S'0x3F'
p620
ssS'build'
p621
(dp622
S'variant'
p623
S'standard'
p624
sS'mcu'
p625
S'atmega328p'
p626
sS'f_cpu'
p627
S'16000000L'
p628
sS'core'
p629
S'arduino'
p630
ssS'name'
p631
S'Arduino Ethernet'
p632
sS'upload'
p633
(dp634
S'protocol'
p635
S'arduino'
p636
sS'maximum_size'
p637
S'32256'
p638
sS'speed'
p639
S'115200'
p640
ssaa(lp641
S'fio'
p642
a(dp643
g105
S'/usr/share/arduino/hardware/arduino'
p644
sS'bootloader'
p645
(dp646
S'extended_fuses'
p647
S'0x05'
p648
sS'high_fuses'
p649
S'0xDA'
p650
sS'low_fuses'
p651
S'0xFF'
p652
sS'lock_bits'
p653
S'0x0F'
p654
sS'file'
p655
S'ATmegaBOOT_168_atmega328_pro_8MHz.hex'
p656
sS'path'
p657
S'arduino:atmega'
p658
sS'unlock_bits'
p659
S'0x3F'
p660
ssS'build'
p661
(dp662
S'core'
p663
S'arduino'
p664
sS'mcu'
p665
S'atmega328p'
p666
sS'f_cpu'
p667
S'8000000L'
p668
sS'variant'
p669
S'eightanaloginputs'
p670
ssS'name'
p671
S'Arduino Fio'
p672
sS'upload'
p673
(dp674
S'protocol'
p675
S'arduino'
p676
sS'maximum_size'
p677
S'30720'
p678
sS'speed'
p679
S'57600'
p680
ssaa(lp681
S'bt328'
p682
a(dp683
g105
S'/usr/share/arduino/hardware/arduino'
p684
sS'bootloader'
p685
(dp686
S'extended_fuses'
p687
S'0x05'
p688
sS'high_fuses'
p689
S'0xd8'
p690
sS'low_fuses'
p691
S'0xff'
p692
sS'lock_bits'
p693
S'0x0F'
p694
sS'file'
p695
S'ATmegaBOOT_168_atmega328_bt.hex'
p696
sS'path'
p697
S'bt'
p698
sS'unlock_bits'
p699
S'0x3F'
p700
ssS'build'
p701
(dp702
S'core'
p703
S'arduino'
p704
sS'mcu'
p705
S'atmega328p'
p706
sS'f_cpu'
p707
S'16000000L'
p708
sS'variant'
p709
S'eightanaloginputs'
p710
ssS'name'
p711
S'Arduino BT w/ ATmega328'
p712
sS'upload'
p713
(dp714
S'protocol'
p715
S'arduino'
p716
sS'maximum_size'
p717
S'28672'
p718
sS'speed'
p719
S'19200'
p720
sS'disable_flushing'
p721
S'true'
p722
ssaa(lp723
S'bt'
p724
a(dp725
g105
S'/usr/share/arduino/hardware/arduino'
p726
sS'bootloader'
p727
(dp728
S'extended_fuses'
p729
S'0x00'
p730
sS'high_fuses'
p731
S'0xdd'
p732
sS'low_fuses'
p733
S'0xff'
p734
sS'lock_bits'
p735
S'0x0F'
p736
sS'file'
p737
S'ATmegaBOOT_168.hex'
p738
sS'path'
p739
S'bt'
p740
sS'unlock_bits'
p741
S'0x3F'
p742
ssS'build'
p743
(dp744
S'core'
p745
S'arduino'
p746
sS'mcu'
p747
S'atmega168'
p748
sS'f_cpu'
p749
S'16000000L'
p750
sS'variant'
p751
S'eightanaloginputs'
p752
ssS'name'
p753
S'Arduino BT w/ ATmega168'
p754
sS'upload'
p755
(dp756
S'protocol'
p757
S'arduino'
p758
sS'maximum_size'
p759
S'14336'
p760
sS'speed'
p761
S'19200'
p762
sS'disable_flushing'
p763
S'true'
p764
ssaa(lp765
S'LilyPadUSB'
p766
a(dp767
g105
S'/usr/share/arduino/hardware/arduino'
p768
sS'bootloader'
p769
(dp770
S'extended_fuses'
p771
S'0xce'
p772
sS'high_fuses'
p773
S'0xd8'
p774
sS'low_fuses'
p775
S'0xff'
p776
sS'lock_bits'
p777
S'0x2F'
p778
sS'file'
p779
S'Caterina-LilyPadUSB.hex'
p780
sS'path'
p781
S'caterina-LilyPadUSB'
p782
sS'unlock_bits'
p783
S'0x3F'
p784
ssS'build'
p785
(dp786
S'core'
p787
S'arduino'
p788
sS'f_cpu'
p789
S'8000000L'
p790
sS'vid'
p791
S'0x1B4F'
p792
sS'pid'
p793
S'0x9208'
p794
sS'variant'
p795
S'leonardo'
p796
sS'mcu'
p797
S'atmega32u4'
p798
ssS'name'
p799
S'LilyPad Arduino USB'
p800
sS'upload'
p801
(dp802
S'protocol'
p803
S'avr109'
p804
sS'maximum_size'
p805
S'28672'
p806
sS'speed'
p807
S'57600'
p808
sS'disable_flushing'
p809
S'true'
p810
ssaa(lp811
S'lilypad328'
p812
a(dp813
g105
S'/usr/share/arduino/hardware/arduino'
p814
sS'bootloader'
p815
(dp816
S'extended_fuses'
p817
S'0x05'
p818
sS'high_fuses'
p819
S'0xDA'
p820
sS'low_fuses'
p821
S'0xFF'
p822
sS'lock_bits'
p823
S'0x0F'
p824
sS'file'
p825
S'ATmegaBOOT_168_atmega328_pro_8MHz.hex'
p826
sS'path'
p827
S'atmega'
p828
sS'unlock_bits'
p829
S'0x3F'
p830
ssS'build'
p831
(dp832
S'core'
p833
S'arduino'
p834
sS'mcu'
p835
S'atmega328p'
p836
sS'f_cpu'
p837
S'8000000L'
p838
sS'variant'
p839
S'standard'
p840
ssS'name'
p841
S'LilyPad Arduino w/ ATmega328'
p842
sS'upload'
p843
(dp844
S'protocol'
p845
S'arduino'
p846
sS'maximum_size'
p847
S'30720'
p848
sS'speed'
p849
S'57600'
p850
ssaa(lp851
S'lilypad'
p852
a(dp853
g105
S'/usr/share/arduino/hardware/arduino'
p854
sS'bootloader'
p855
(dp856
S'extended_fuses'
p857
S'0x00'
p858
sS'high_fuses'
p859
S'0xdd'
p860
sS'low_fuses'
p861
S'0xe2'
p862
sS'lock_bits'
p863
S'0x0F'
p864
sS'file'
p865
S'LilyPadBOOT_168.hex'
p866
sS'path'
p867
S'lilypad'
p868
sS'unlock_bits'
p869
S'0x3F'
p870
ssS'build'
p871
(dp872
S'core'
p873
S'arduino'
p874
sS'mcu'
p875
S'atmega168'
p876
sS'f_cpu'
p877
S'8000000L'
p878
sS'variant'
p879
S'standard'
p880
ssS'name'
p881
S'LilyPad Arduino w/ ATmega168'
p882
sS'upload'
p883
(dp884
S'protocol'
p885
S'arduino'
p886
sS'maximum_size'
p887
S'14336'
p888
sS'speed'
p889
S'19200'
p890
ssaa(lp891
S'pro5v328'
p892
a(dp893
g105
S'/usr/share/arduino/hardware/arduino'
p894
sS'bootloader'
p895
(dp896
S'extended_fuses'
p897
S'0x05'
p898
sS'high_fuses'
p899
S'0xDA'
p900
sS'low_fuses'
p901
S'0xFF'
p902
sS'lock_bits'
p903
S'0x0F'
p904
sS'file'
p905
S'ATmegaBOOT_168_atmega328.hex'
p906
sS'path'
p907
S'atmega'
p908
sS'unlock_bits'
p909
S'0x3F'
p910
ssS'build'
p911
(dp912
S'core'
p913
S'arduino'
p914
sS'mcu'
p915
S'atmega328p'
p916
sS'f_cpu'
p917
S'16000000L'
p918
sS'variant'
p919
S'standard'
p920
ssS'name'
p921
S'Arduino Pro or Pro Mini (5V, 16 MHz) w/ ATmega328'
p922
sS'upload'
p923
(dp924
S'protocol'
p925
S'arduino'
p926
sS'maximum_size'
p927
S'30720'
p928
sS'speed'
p929
S'57600'
p930
ssaa(lp931
S'pro5v'
p932
a(dp933
g105
S'/usr/share/arduino/hardware/arduino'
p934
sS'bootloader'
p935
(dp936
S'extended_fuses'
p937
S'0x00'
p938
sS'high_fuses'
p939
S'0xdd'
p940
sS'low_fuses'
p941
S'0xff'
p942
sS'lock_bits'
p943
S'0x0F'
p944
sS'file'
p945
S'ATmegaBOOT_168_diecimila.hex'
p946
sS'path'
p947
S'atmega'
p948
sS'unlock_bits'
p949
S'0x3F'
p950
ssS'build'
p951
(dp952
S'core'
p953
S'arduino'
p954
sS'mcu'
p955
S'atmega168'
p956
sS'f_cpu'
p957
S'16000000L'
p958
sS'variant'
p959
S'standard'
p960
ssS'name'
p961
S'Arduino Pro or Pro Mini (5V, 16 MHz) w/ ATmega168'
p962
sS'upload'
p963
(dp964
S'protocol'
p965
S'arduino'
p966
sS'maximum_size'
p967
S'14336'
p968
sS'speed'
p969
S'19200'
p970
ssaa(lp971
S'pro328'
p972
a(dp973
g105
S'/usr/share/arduino/hardware/arduino'
p974
sS'bootloader'
p975
(dp976
S'extended_fuses'
p977
S'0x05'
p978
sS'high_fuses'
p979
S'0xDA'
p980
sS'low_fuses'
p981
S'0xFF'
p982
sS'lock_bits'
p983
S'0x0F'
p984
sS'file'
p985
S'ATmegaBOOT_168_atmega328_pro_8MHz.hex'
p986
sS'path'
p987
S'atmega'
p988
sS'unlock_bits'
p989
S'0x3F'
p990
ssS'build'
p991
(dp992
S'core'
p993
S'arduino'
p994
sS'mcu'
p995
S'atmega328p'
p996
sS'f_cpu'
p997
S'8000000L'
p998
sS'variant'
p999
S'standard'
p1000
ssS'name'
p1001
S'Arduino Pro or Pro Mini (3.3V, 8 MHz) w/ ATmega328'
p1002
sS'upload'
p1003
(dp1004
S'protocol'
p1005
S'arduino'
p1006
sS'maximum_size'
p1007
S'30720'
p1008
sS'speed'
p1009
S'57600'
p1010
ssaa(lp1011
S'pro'
p1012
a(dp1013
g105
S'/usr/share/arduino/hardware/arduino'
p1014
sS'bootloader'
p1015
(dp1016
S'extended_fuses'
p1017
S'0x00'
p1018
sS'high_fuses'
p1019
S'0xdd'
p1020
sS'low_fuses'
p1021
S'0xc6'
p1022
sS'lock_bits'
p1023
S'0x0F'
p1024
sS'file'
p1025
S'ATmegaBOOT_168_pro_8MHz.hex'
p1026
sS'path'
p1027
S'atmega'
p1028
sS'unlock_bits'
p1029
S'0x3F'
p1030
ssS'build'
p1031
(dp1032
S'core'
p1033
S'arduino'
p1034
sS'mcu'
p1035
S'atmega168'
p1036
sS'f_cpu'
p1037
S'8000000L'
p1038
sS'variant'
p1039
S'standard'
p1040
ssS'name'
p1041
S'Arduino Pro or Pro Mini (3.3V, 8 MHz) w/ ATmega168'
p1042
sS'upload'
p1043
(dp1044
S'protocol'
p1045
S'arduino'
p1046
sS'maximum_size'
p1047
S'14336'
p1048
sS'speed'
p1049
S'19200'
p1050
ssaa(lp1051
S'atmega168'
p1052
a(dp1053
g105
S'/usr/share/arduino/hardware/arduino'
p1054
sS'bootloader'
p1055
(dp1056
S'extended_fuses'
p1057
S'0x00'
p1058
sS'high_fuses'
p1059
S'0xdd'
p1060
sS'low_fuses'
p1061
S'0xff'
p1062
sS'lock_bits'
p1063
S'0x0F'
p1064
sS'file'
p1065
S'ATmegaBOOT_168_ng.hex'
p1066
sS'path'
p1067
S'atmega'
p1068
sS'unlock_bits'
p1069
S'0x3F'
p1070
ssS'build'
p1071
(dp1072
S'core'
p1073
S'arduino'
p1074
sS'mcu'
p1075
S'atmega168'
p1076
sS'f_cpu'
p1077
S'16000000L'
p1078
sS'variant'
p1079
S'standard'
p1080
ssS'name'
p1081
S'Arduino NG or older w/ ATmega168'
p1082
sS'upload'
p1083
(dp1084
S'protocol'
p1085
S'arduino'
p1086
sS'maximum_size'
p1087
S'14336'
p1088
sS'speed'
p1089
S'19200'
p1090
ssaa(lp1091
S'atmega8'
p1092
a(dp1093
g105
S'/usr/share/arduino/hardware/arduino'
p1094
sS'bootloader'
p1095
(dp1096
S'high_fuses'
p1097
S'0xca'
p1098
sS'low_fuses'
p1099
S'0xdf'
p1100
sS'lock_bits'
p1101
S'0x0F'
p1102
sS'file'
p1103
S'ATmegaBOOT-prod-firmware-2009-11-07.hex'
p1104
sS'path'
p1105
S'atmega8'
p1106
sS'unlock_bits'
p1107
S'0x3F'
p1108
ssS'build'
p1109
(dp1110
S'core'
p1111
S'arduino'
p1112
sS'mcu'
p1113
S'atmega8'
p1114
sS'f_cpu'
p1115
S'16000000L'
p1116
sS'variant'
p1117
S'standard'
p1118
ssS'name'
p1119
S'Arduino NG or older w/ ATmega8'
p1120
sS'upload'
p1121
(dp1122
S'protocol'
p1123
S'arduino'
p1124
sS'maximum_size'
p1125
S'7168'
p1126
sS'speed'
p1127
S'19200'
p1128
ssaa(lp1129
S'robotControl'
p1130
a(dp1131
g105
S'/usr/share/arduino/hardware/arduino'
p1132
sS'bootloader'
p1133
(dp1134
S'extended_fuses'
p1135
S'0xcb'
p1136
sS'high_fuses'
p1137
S'0xd8'
p1138
sS'low_fuses'
p1139
S'0xff'
p1140
sS'lock_bits'
p1141
S'0x2F'
p1142
sS'file'
p1143
S'Caterina-Robot-Control.hex'
p1144
sS'path'
p1145
S'caterina-Arduino_Robot'
p1146
sS'unlock_bits'
p1147
S'0x3F'
p1148
ssS'build'
p1149
(dp1150
S'core'
p1151
S'robot'
p1152
sS'f_cpu'
p1153
S'16000000L'
p1154
sS'vid'
p1155
S'0x2341'
p1156
sS'pid'
p1157
S'0x8038'
p1158
sS'variant'
p1159
S'robot_control'
p1160
sS'mcu'
p1161
S'atmega32u4'
p1162
ssS'name'
p1163
S'Arduino Robot Control'
p1164
sS'upload'
p1165
(dp1166
S'protocol'
p1167
S'avr109'
p1168
sS'maximum_size'
p1169
S'28672'
p1170
sS'speed'
p1171
S'57600'
p1172
sS'disable_flushing'
p1173
S'true'
p1174
ssaa(lp1175
S'robotMotor'
p1176
a(dp1177
g105
S'/usr/share/arduino/hardware/arduino'
p1178
sS'bootloader'
p1179
(dp1180
S'extended_fuses'
p1181
S'0xcb'
p1182
sS'high_fuses'
p1183
S'0xd8'
p1184
sS'low_fuses'
p1185
S'0xff'
p1186
sS'lock_bits'
p1187
S'0x2F'
p1188
sS'file'
p1189
S'Caterina-Robot-Motor.hex'
p1190
sS'path'
p1191
S'caterina-Arduino_Robot'
p1192
sS'unlock_bits'
p1193
S'0x3F'
p1194
ssS'build'
p1195
(dp1196
S'core'
p1197
S'robot'
p1198
sS'f_cpu'
p1199
S'16000000L'
p1200
sS'vid'
p1201
S'0x2341'
p1202
sS'pid'
p1203
S'0x8039'
p1204
sS'variant'
p1205
S'robot_motor'
p1206
sS'mcu'
p1207
S'atmega32u4'
p1208
ssS'name'
p1209
S'Arduino Robot Motor'
p1210
sS'upload'
p1211
(dp1212
S'protocol'
p1213
S'avr109'
p1214
sS'maximum_size'
p1215
S'28672'
p1216
sS'speed'
p1217
S'57600'
p1218
sS'disable_flushing'
p1219
S'true'
p1220
ssaatp1221
Rp1222
(dp1223
S'default'
p1224
S'uno'
p1225
sbtp1226
a(S'ldflags'
p1227
g2
(g3
g4
(lp1228
g6
aS'-Wl,-Os'
p1229
aS'-Wl,--gc-sections'
p1230
atp1231
Rp1232
tp1233
a.